ARM GAS  C:\Users\JOSHU_~1\AppData\Local\Temp\ccXCFI4o.s 			page 1


   1              		.syntax unified
   2              		.cpu cortex-m3
   3              		.fpu softvfp
   4              		.eabi_attribute 20, 1
   5              		.eabi_attribute 21, 1
   6              		.eabi_attribute 23, 3
   7              		.eabi_attribute 24, 1
   8              		.eabi_attribute 25, 1
   9              		.eabi_attribute 26, 1
  10              		.eabi_attribute 30, 6
  11              		.eabi_attribute 34, 1
  12              		.eabi_attribute 18, 4
  13              		.thumb
  14              		.syntax unified
  15              		.file	"cyfitter_cfg.c"
  16              		.text
  17              	.Ltext0:
  18              		.cfi_sections	.debug_frame
  19              		.section	.text.CYMEMZERO,"ax",%progbits
  20              		.align	2
  21              		.thumb
  22              		.thumb_func
  23              		.type	CYMEMZERO, %function
  24              	CYMEMZERO:
  25              	.LFB0:
  26              		.file 1 "Generated_Source\\PSoC5\\cyfitter_cfg.c"
   1:Generated_Source\PSoC5/cyfitter_cfg.c **** 
   2:Generated_Source\PSoC5/cyfitter_cfg.c **** /*******************************************************************************
   3:Generated_Source\PSoC5/cyfitter_cfg.c **** * File Name: cyfitter_cfg.c
   4:Generated_Source\PSoC5/cyfitter_cfg.c **** * 
   5:Generated_Source\PSoC5/cyfitter_cfg.c **** * PSoC Creator  4.2
   6:Generated_Source\PSoC5/cyfitter_cfg.c **** *
   7:Generated_Source\PSoC5/cyfitter_cfg.c **** * Description:
   8:Generated_Source\PSoC5/cyfitter_cfg.c **** * This file contains device initialization code.
   9:Generated_Source\PSoC5/cyfitter_cfg.c **** * Except for the user defined sections in CyClockStartupError(), this file should not be modified.
  10:Generated_Source\PSoC5/cyfitter_cfg.c **** * This file is automatically generated by PSoC Creator.
  11:Generated_Source\PSoC5/cyfitter_cfg.c **** *
  12:Generated_Source\PSoC5/cyfitter_cfg.c **** ********************************************************************************
  13:Generated_Source\PSoC5/cyfitter_cfg.c **** * Copyright (c) 2007-2018 Cypress Semiconductor.  All rights reserved.
  14:Generated_Source\PSoC5/cyfitter_cfg.c **** * You may use this file only in accordance with the license, terms, conditions, 
  15:Generated_Source\PSoC5/cyfitter_cfg.c **** * disclaimers, and limitations in the end user license agreement accompanying 
  16:Generated_Source\PSoC5/cyfitter_cfg.c **** * the software package with which this file was provided.
  17:Generated_Source\PSoC5/cyfitter_cfg.c **** ********************************************************************************/
  18:Generated_Source\PSoC5/cyfitter_cfg.c **** 
  19:Generated_Source\PSoC5/cyfitter_cfg.c **** #include <string.h>
  20:Generated_Source\PSoC5/cyfitter_cfg.c **** #include "cytypes.h"
  21:Generated_Source\PSoC5/cyfitter_cfg.c **** #include "cydevice_trm.h"
  22:Generated_Source\PSoC5/cyfitter_cfg.c **** #include "cyfitter.h"
  23:Generated_Source\PSoC5/cyfitter_cfg.c **** #include "CyLib.h"
  24:Generated_Source\PSoC5/cyfitter_cfg.c **** #include "cyfitter_cfg.h"
  25:Generated_Source\PSoC5/cyfitter_cfg.c **** #include "cyapicallbacks.h"
  26:Generated_Source\PSoC5/cyfitter_cfg.c **** 
  27:Generated_Source\PSoC5/cyfitter_cfg.c **** #define CY_NEED_CYCLOCKSTARTUPERROR 1
  28:Generated_Source\PSoC5/cyfitter_cfg.c **** 
  29:Generated_Source\PSoC5/cyfitter_cfg.c **** 
  30:Generated_Source\PSoC5/cyfitter_cfg.c **** #if defined(__GNUC__) || defined(__ARMCC_VERSION)
  31:Generated_Source\PSoC5/cyfitter_cfg.c ****     #define CYPACKED 
ARM GAS  C:\Users\JOSHU_~1\AppData\Local\Temp\ccXCFI4o.s 			page 2


  32:Generated_Source\PSoC5/cyfitter_cfg.c ****     #define CYPACKED_ATTR __attribute__ ((packed))
  33:Generated_Source\PSoC5/cyfitter_cfg.c ****     #define CYALIGNED __attribute__ ((aligned))
  34:Generated_Source\PSoC5/cyfitter_cfg.c ****     #define CY_CFG_UNUSED __attribute__ ((unused))
  35:Generated_Source\PSoC5/cyfitter_cfg.c ****     #ifndef CY_CFG_SECTION
  36:Generated_Source\PSoC5/cyfitter_cfg.c ****         #define CY_CFG_SECTION __attribute__ ((section(".psocinit")))
  37:Generated_Source\PSoC5/cyfitter_cfg.c ****     #endif
  38:Generated_Source\PSoC5/cyfitter_cfg.c ****     
  39:Generated_Source\PSoC5/cyfitter_cfg.c ****     #if CYDEV_CONFIGURATION_DMA
  40:Generated_Source\PSoC5/cyfitter_cfg.c ****         #if (defined(__ARMCC_VERSION) || defined(__GNUC__))
  41:Generated_Source\PSoC5/cyfitter_cfg.c ****             #ifndef DMAINITSEC
  42:Generated_Source\PSoC5/cyfitter_cfg.c ****                 #define DMAINITSEC __attribute__ ((section(".dma_init")))
  43:Generated_Source\PSoC5/cyfitter_cfg.c ****             #endif
  44:Generated_Source\PSoC5/cyfitter_cfg.c ****         #elif defined(__ICCARM__)
  45:Generated_Source\PSoC5/cyfitter_cfg.c ****             #define DMAINITSEC _Pragma("location=\".dma_init\"")
  46:Generated_Source\PSoC5/cyfitter_cfg.c ****         #endif
  47:Generated_Source\PSoC5/cyfitter_cfg.c ****     #else
  48:Generated_Source\PSoC5/cyfitter_cfg.c ****         #define DMAINITSEC
  49:Generated_Source\PSoC5/cyfitter_cfg.c ****     #endif
  50:Generated_Source\PSoC5/cyfitter_cfg.c **** 
  51:Generated_Source\PSoC5/cyfitter_cfg.c ****     #if defined(__ARMCC_VERSION)
  52:Generated_Source\PSoC5/cyfitter_cfg.c ****         #define CY_CFG_MEMORY_BARRIER() __memory_changed()
  53:Generated_Source\PSoC5/cyfitter_cfg.c ****     #else
  54:Generated_Source\PSoC5/cyfitter_cfg.c ****         #define CY_CFG_MEMORY_BARRIER() __sync_synchronize()
  55:Generated_Source\PSoC5/cyfitter_cfg.c ****     #endif
  56:Generated_Source\PSoC5/cyfitter_cfg.c ****     
  57:Generated_Source\PSoC5/cyfitter_cfg.c **** #elif defined(__ICCARM__)
  58:Generated_Source\PSoC5/cyfitter_cfg.c ****     #include <intrinsics.h>
  59:Generated_Source\PSoC5/cyfitter_cfg.c **** 
  60:Generated_Source\PSoC5/cyfitter_cfg.c ****     #define CYPACKED __packed
  61:Generated_Source\PSoC5/cyfitter_cfg.c ****     #define CYPACKED_ATTR 
  62:Generated_Source\PSoC5/cyfitter_cfg.c ****     #define CYALIGNED _Pragma("data_alignment=4")
  63:Generated_Source\PSoC5/cyfitter_cfg.c ****     #define CY_CFG_UNUSED _Pragma("diag_suppress=Pe177")
  64:Generated_Source\PSoC5/cyfitter_cfg.c ****     #define CY_CFG_SECTION _Pragma("location=\".psocinit\"")
  65:Generated_Source\PSoC5/cyfitter_cfg.c ****     
  66:Generated_Source\PSoC5/cyfitter_cfg.c ****     #if CYDEV_CONFIGURATION_DMA
  67:Generated_Source\PSoC5/cyfitter_cfg.c ****         #if (defined(__ARMCC_VERSION) || defined(__GNUC__))
  68:Generated_Source\PSoC5/cyfitter_cfg.c ****             #ifndef DMAINITSEC
  69:Generated_Source\PSoC5/cyfitter_cfg.c ****                 #define DMAINITSEC __attribute__ ((section(".dma_init")))
  70:Generated_Source\PSoC5/cyfitter_cfg.c ****             #endif
  71:Generated_Source\PSoC5/cyfitter_cfg.c ****         #elif defined(__ICCARM__)
  72:Generated_Source\PSoC5/cyfitter_cfg.c ****             #define DMAINITSEC _Pragma("location=\".dma_init\"")
  73:Generated_Source\PSoC5/cyfitter_cfg.c ****         #endif
  74:Generated_Source\PSoC5/cyfitter_cfg.c ****     #else
  75:Generated_Source\PSoC5/cyfitter_cfg.c ****         #define DMAINITSEC
  76:Generated_Source\PSoC5/cyfitter_cfg.c ****     #endif
  77:Generated_Source\PSoC5/cyfitter_cfg.c **** 
  78:Generated_Source\PSoC5/cyfitter_cfg.c ****     #define CY_CFG_MEMORY_BARRIER() __DMB()
  79:Generated_Source\PSoC5/cyfitter_cfg.c ****     
  80:Generated_Source\PSoC5/cyfitter_cfg.c **** #else
  81:Generated_Source\PSoC5/cyfitter_cfg.c ****     #error Unsupported toolchain
  82:Generated_Source\PSoC5/cyfitter_cfg.c **** #endif
  83:Generated_Source\PSoC5/cyfitter_cfg.c **** 
  84:Generated_Source\PSoC5/cyfitter_cfg.c **** #ifndef CYCODE
  85:Generated_Source\PSoC5/cyfitter_cfg.c ****     #define CYCODE
  86:Generated_Source\PSoC5/cyfitter_cfg.c **** #endif
  87:Generated_Source\PSoC5/cyfitter_cfg.c **** #ifndef CYDATA
  88:Generated_Source\PSoC5/cyfitter_cfg.c ****     #define CYDATA
ARM GAS  C:\Users\JOSHU_~1\AppData\Local\Temp\ccXCFI4o.s 			page 3


  89:Generated_Source\PSoC5/cyfitter_cfg.c **** #endif
  90:Generated_Source\PSoC5/cyfitter_cfg.c **** #ifndef CYFAR
  91:Generated_Source\PSoC5/cyfitter_cfg.c ****     #define CYFAR
  92:Generated_Source\PSoC5/cyfitter_cfg.c **** #endif
  93:Generated_Source\PSoC5/cyfitter_cfg.c **** #ifndef CYXDATA
  94:Generated_Source\PSoC5/cyfitter_cfg.c ****     #define CYXDATA
  95:Generated_Source\PSoC5/cyfitter_cfg.c **** #endif
  96:Generated_Source\PSoC5/cyfitter_cfg.c **** 
  97:Generated_Source\PSoC5/cyfitter_cfg.c **** 
  98:Generated_Source\PSoC5/cyfitter_cfg.c **** CY_CFG_UNUSED
  99:Generated_Source\PSoC5/cyfitter_cfg.c **** static void CYMEMZERO(void *s, size_t n);
 100:Generated_Source\PSoC5/cyfitter_cfg.c **** CY_CFG_UNUSED
 101:Generated_Source\PSoC5/cyfitter_cfg.c **** static void CYMEMZERO(void *s, size_t n)
 102:Generated_Source\PSoC5/cyfitter_cfg.c **** {
  27              		.loc 1 102 0
  28              		.cfi_startproc
  29              		@ args = 0, pretend = 0, frame = 8
  30              		@ frame_needed = 1, uses_anonymous_args = 0
  31 0000 80B5     		push	{r7, lr}
  32              		.cfi_def_cfa_offset 8
  33              		.cfi_offset 7, -8
  34              		.cfi_offset 14, -4
  35 0002 82B0     		sub	sp, sp, #8
  36              		.cfi_def_cfa_offset 16
  37 0004 00AF     		add	r7, sp, #0
  38              		.cfi_def_cfa_register 7
  39 0006 7860     		str	r0, [r7, #4]
  40 0008 3960     		str	r1, [r7]
 103:Generated_Source\PSoC5/cyfitter_cfg.c **** 	(void)memset(s, 0, n);
  41              		.loc 1 103 0
  42 000a 3A68     		ldr	r2, [r7]
  43 000c 0021     		movs	r1, #0
  44 000e 7868     		ldr	r0, [r7, #4]
  45 0010 FFF7FEFF 		bl	memset
 104:Generated_Source\PSoC5/cyfitter_cfg.c **** }
  46              		.loc 1 104 0
  47 0014 00BF     		nop
  48 0016 0837     		adds	r7, r7, #8
  49              		.cfi_def_cfa_offset 8
  50 0018 BD46     		mov	sp, r7
  51              		.cfi_def_cfa_register 13
  52              		@ sp needed
  53 001a 80BD     		pop	{r7, pc}
  54              		.cfi_endproc
  55              	.LFE0:
  56              		.size	CYMEMZERO, .-CYMEMZERO
  57              		.section	.text.CYCONFIGCPY,"ax",%progbits
  58              		.align	2
  59              		.thumb
  60              		.thumb_func
  61              		.type	CYCONFIGCPY, %function
  62              	CYCONFIGCPY:
  63              	.LFB1:
 105:Generated_Source\PSoC5/cyfitter_cfg.c **** CY_CFG_UNUSED
 106:Generated_Source\PSoC5/cyfitter_cfg.c **** static void CYCONFIGCPY(void *dest, const void *src, size_t n);
 107:Generated_Source\PSoC5/cyfitter_cfg.c **** CY_CFG_UNUSED
 108:Generated_Source\PSoC5/cyfitter_cfg.c **** static void CYCONFIGCPY(void *dest, const void *src, size_t n)
ARM GAS  C:\Users\JOSHU_~1\AppData\Local\Temp\ccXCFI4o.s 			page 4


 109:Generated_Source\PSoC5/cyfitter_cfg.c **** {
  64              		.loc 1 109 0
  65              		.cfi_startproc
  66              		@ args = 0, pretend = 0, frame = 16
  67              		@ frame_needed = 1, uses_anonymous_args = 0
  68 0000 80B5     		push	{r7, lr}
  69              		.cfi_def_cfa_offset 8
  70              		.cfi_offset 7, -8
  71              		.cfi_offset 14, -4
  72 0002 84B0     		sub	sp, sp, #16
  73              		.cfi_def_cfa_offset 24
  74 0004 00AF     		add	r7, sp, #0
  75              		.cfi_def_cfa_register 7
  76 0006 F860     		str	r0, [r7, #12]
  77 0008 B960     		str	r1, [r7, #8]
  78 000a 7A60     		str	r2, [r7, #4]
 110:Generated_Source\PSoC5/cyfitter_cfg.c **** 	(void)memcpy(dest, src, n);
  79              		.loc 1 110 0
  80 000c 7A68     		ldr	r2, [r7, #4]
  81 000e B968     		ldr	r1, [r7, #8]
  82 0010 F868     		ldr	r0, [r7, #12]
  83 0012 FFF7FEFF 		bl	memcpy
 111:Generated_Source\PSoC5/cyfitter_cfg.c **** }
  84              		.loc 1 111 0
  85 0016 00BF     		nop
  86 0018 1037     		adds	r7, r7, #16
  87              		.cfi_def_cfa_offset 8
  88 001a BD46     		mov	sp, r7
  89              		.cfi_def_cfa_register 13
  90              		@ sp needed
  91 001c 80BD     		pop	{r7, pc}
  92              		.cfi_endproc
  93              	.LFE1:
  94              		.size	CYCONFIGCPY, .-CYCONFIGCPY
  95 001e 00BF     		.section	.text.CYCONFIGCPYCODE,"ax",%progbits
  96              		.align	2
  97              		.thumb
  98              		.thumb_func
  99              		.type	CYCONFIGCPYCODE, %function
 100              	CYCONFIGCPYCODE:
 101              	.LFB2:
 112:Generated_Source\PSoC5/cyfitter_cfg.c **** CY_CFG_UNUSED
 113:Generated_Source\PSoC5/cyfitter_cfg.c **** static void CYCONFIGCPYCODE(void *dest, const void *src, size_t n);
 114:Generated_Source\PSoC5/cyfitter_cfg.c **** CY_CFG_UNUSED
 115:Generated_Source\PSoC5/cyfitter_cfg.c **** static void CYCONFIGCPYCODE(void *dest, const void *src, size_t n)
 116:Generated_Source\PSoC5/cyfitter_cfg.c **** {
 102              		.loc 1 116 0
 103              		.cfi_startproc
 104              		@ args = 0, pretend = 0, frame = 16
 105              		@ frame_needed = 1, uses_anonymous_args = 0
 106 0000 80B5     		push	{r7, lr}
 107              		.cfi_def_cfa_offset 8
 108              		.cfi_offset 7, -8
 109              		.cfi_offset 14, -4
 110 0002 84B0     		sub	sp, sp, #16
 111              		.cfi_def_cfa_offset 24
 112 0004 00AF     		add	r7, sp, #0
ARM GAS  C:\Users\JOSHU_~1\AppData\Local\Temp\ccXCFI4o.s 			page 5


 113              		.cfi_def_cfa_register 7
 114 0006 F860     		str	r0, [r7, #12]
 115 0008 B960     		str	r1, [r7, #8]
 116 000a 7A60     		str	r2, [r7, #4]
 117:Generated_Source\PSoC5/cyfitter_cfg.c **** 	(void)memcpy(dest, src, n);
 117              		.loc 1 117 0
 118 000c 7A68     		ldr	r2, [r7, #4]
 119 000e B968     		ldr	r1, [r7, #8]
 120 0010 F868     		ldr	r0, [r7, #12]
 121 0012 FFF7FEFF 		bl	memcpy
 118:Generated_Source\PSoC5/cyfitter_cfg.c **** }
 122              		.loc 1 118 0
 123 0016 00BF     		nop
 124 0018 1037     		adds	r7, r7, #16
 125              		.cfi_def_cfa_offset 8
 126 001a BD46     		mov	sp, r7
 127              		.cfi_def_cfa_register 13
 128              		@ sp needed
 129 001c 80BD     		pop	{r7, pc}
 130              		.cfi_endproc
 131              	.LFE2:
 132              		.size	CYCONFIGCPYCODE, .-CYCONFIGCPYCODE
 133 001e 00BF     		.section	.text.CyClockStartupError,"ax",%progbits
 134              		.align	2
 135              		.thumb
 136              		.thumb_func
 137              		.type	CyClockStartupError, %function
 138              	CyClockStartupError:
 139              	.LFB3:
 119:Generated_Source\PSoC5/cyfitter_cfg.c **** 
 120:Generated_Source\PSoC5/cyfitter_cfg.c **** 
 121:Generated_Source\PSoC5/cyfitter_cfg.c **** 
 122:Generated_Source\PSoC5/cyfitter_cfg.c **** 
 123:Generated_Source\PSoC5/cyfitter_cfg.c **** /* Clock startup error codes                                                   */
 124:Generated_Source\PSoC5/cyfitter_cfg.c **** #define CYCLOCKSTART_NO_ERROR    0u
 125:Generated_Source\PSoC5/cyfitter_cfg.c **** #define CYCLOCKSTART_XTAL_ERROR  1u
 126:Generated_Source\PSoC5/cyfitter_cfg.c **** #define CYCLOCKSTART_32KHZ_ERROR 2u
 127:Generated_Source\PSoC5/cyfitter_cfg.c **** #define CYCLOCKSTART_PLL_ERROR   3u
 128:Generated_Source\PSoC5/cyfitter_cfg.c **** #define CYCLOCKSTART_FLL_ERROR   4u
 129:Generated_Source\PSoC5/cyfitter_cfg.c **** #define CYCLOCKSTART_WCO_ERROR   5u
 130:Generated_Source\PSoC5/cyfitter_cfg.c **** 
 131:Generated_Source\PSoC5/cyfitter_cfg.c **** 
 132:Generated_Source\PSoC5/cyfitter_cfg.c **** #ifdef CY_NEED_CYCLOCKSTARTUPERROR
 133:Generated_Source\PSoC5/cyfitter_cfg.c **** /*******************************************************************************
 134:Generated_Source\PSoC5/cyfitter_cfg.c **** * Function Name: CyClockStartupError
 135:Generated_Source\PSoC5/cyfitter_cfg.c **** ********************************************************************************
 136:Generated_Source\PSoC5/cyfitter_cfg.c **** * Summary:
 137:Generated_Source\PSoC5/cyfitter_cfg.c **** *  If an error is encountered during clock configuration (crystal startup error,
 138:Generated_Source\PSoC5/cyfitter_cfg.c **** *  PLL lock error, etc.), the system will end up here.  Unless reimplemented by
 139:Generated_Source\PSoC5/cyfitter_cfg.c **** *  the customer, this function will stop in an infinite loop.
 140:Generated_Source\PSoC5/cyfitter_cfg.c **** *
 141:Generated_Source\PSoC5/cyfitter_cfg.c **** * Parameters:
 142:Generated_Source\PSoC5/cyfitter_cfg.c **** *   void
 143:Generated_Source\PSoC5/cyfitter_cfg.c **** *
 144:Generated_Source\PSoC5/cyfitter_cfg.c **** * Return:
 145:Generated_Source\PSoC5/cyfitter_cfg.c **** *   void
 146:Generated_Source\PSoC5/cyfitter_cfg.c **** *
ARM GAS  C:\Users\JOSHU_~1\AppData\Local\Temp\ccXCFI4o.s 			page 6


 147:Generated_Source\PSoC5/cyfitter_cfg.c **** *******************************************************************************/
 148:Generated_Source\PSoC5/cyfitter_cfg.c **** CY_CFG_UNUSED
 149:Generated_Source\PSoC5/cyfitter_cfg.c **** static void CyClockStartupError(uint8 errorCode);
 150:Generated_Source\PSoC5/cyfitter_cfg.c **** CY_CFG_UNUSED
 151:Generated_Source\PSoC5/cyfitter_cfg.c **** static void CyClockStartupError(uint8 errorCode)
 152:Generated_Source\PSoC5/cyfitter_cfg.c **** {
 140              		.loc 1 152 0
 141              		.cfi_startproc
 142              		@ args = 0, pretend = 0, frame = 8
 143              		@ frame_needed = 1, uses_anonymous_args = 0
 144              		@ link register save eliminated.
 145 0000 80B4     		push	{r7}
 146              		.cfi_def_cfa_offset 4
 147              		.cfi_offset 7, -4
 148 0002 83B0     		sub	sp, sp, #12
 149              		.cfi_def_cfa_offset 16
 150 0004 00AF     		add	r7, sp, #0
 151              		.cfi_def_cfa_register 7
 152 0006 0346     		mov	r3, r0
 153 0008 FB71     		strb	r3, [r7, #7]
 154              	.L5:
 153:Generated_Source\PSoC5/cyfitter_cfg.c ****     /* To remove the compiler warning if errorCode not used.                */
 154:Generated_Source\PSoC5/cyfitter_cfg.c ****     errorCode = errorCode;
 155:Generated_Source\PSoC5/cyfitter_cfg.c **** 
 156:Generated_Source\PSoC5/cyfitter_cfg.c ****     /* If we have a clock startup error (bad MHz crystal, PLL lock, etc.),  */
 157:Generated_Source\PSoC5/cyfitter_cfg.c ****     /* we will end up here to allow the customer to implement something to  */
 158:Generated_Source\PSoC5/cyfitter_cfg.c ****     /* deal with the clock condition.                                       */
 159:Generated_Source\PSoC5/cyfitter_cfg.c **** 
 160:Generated_Source\PSoC5/cyfitter_cfg.c **** #ifdef CY_CFG_CLOCK_STARTUP_ERROR_CALLBACK
 161:Generated_Source\PSoC5/cyfitter_cfg.c ****     CY_CFG_Clock_Startup_ErrorCallback();
 162:Generated_Source\PSoC5/cyfitter_cfg.c **** #else
 163:Generated_Source\PSoC5/cyfitter_cfg.c ****     /*  If not using CY_CFG_CLOCK_STARTUP_ERROR_CALLBACK, place your clock startup code here. */
 164:Generated_Source\PSoC5/cyfitter_cfg.c ****     /* `#START CyClockStartupError` */
 165:Generated_Source\PSoC5/cyfitter_cfg.c **** 
 166:Generated_Source\PSoC5/cyfitter_cfg.c **** 
 167:Generated_Source\PSoC5/cyfitter_cfg.c **** 
 168:Generated_Source\PSoC5/cyfitter_cfg.c ****     /* `#END` */
 169:Generated_Source\PSoC5/cyfitter_cfg.c **** 
 170:Generated_Source\PSoC5/cyfitter_cfg.c ****     while(1) {}
 155              		.loc 1 170 0 discriminator 1
 156 000a FEE7     		b	.L5
 157              		.cfi_endproc
 158              	.LFE3:
 159              		.size	CyClockStartupError, .-CyClockStartupError
 160              		.section	.dma_init,"a",%progbits
 161              		.align	2
 162              		.type	CH1_ADDR_DATA0.4976, %object
 163              		.size	CH1_ADDR_DATA0.4976, 8
 164              	CH1_ADDR_DATA0.4976:
 165 0000 01       		.byte	1
 166 0001 00       		.byte	0
 167 0002 00       		.byte	0
 168 0003 00       		.byte	0
 169 0004 00       		.byte	0
 170 0005 20       		.byte	32
 171 0006 00       		.byte	0
 172 0007 40       		.byte	64
ARM GAS  C:\Users\JOSHU_~1\AppData\Local\Temp\ccXCFI4o.s 			page 7


 173              		.align	2
 174              		.type	CH2_ADDR_DATA0.4977, %object
 175              		.size	CH2_ADDR_DATA0.4977, 8
 176              	CH2_ADDR_DATA0.4977:
 177 0008 01       		.byte	1
 178 0009 00       		.byte	0
 179 000a 00       		.byte	0
 180 000b 00       		.byte	0
 181 000c 00       		.byte	0
 182 000d 20       		.byte	32
 183 000e 01       		.byte	1
 184 000f 40       		.byte	64
 185              		.align	2
 186              		.type	CH5_ADDR_DATA0.4978, %object
 187              		.size	CH5_ADDR_DATA0.4978, 8
 188              	CH5_ADDR_DATA0.4978:
 189 0010 01       		.byte	1
 190 0011 00       		.byte	0
 191 0012 00       		.byte	0
 192 0013 00       		.byte	0
 193 0014 00       		.byte	0
 194 0015 48       		.byte	72
 195 0016 00       		.byte	0
 196 0017 40       		.byte	64
 197              		.align	2
 198              		.type	CH6_ADDR_DATA0.4979, %object
 199              		.size	CH6_ADDR_DATA0.4979, 8
 200              	CH6_ADDR_DATA0.4979:
 201 0018 01       		.byte	1
 202 0019 00       		.byte	0
 203 001a 00       		.byte	0
 204 001b 00       		.byte	0
 205 001c 00       		.byte	0
 206 001d 48       		.byte	72
 207 001e 01       		.byte	1
 208 001f 40       		.byte	64
 209              		.align	2
 210              		.type	DMA_TD_START_CMD.4980, %object
 211              		.size	DMA_TD_START_CMD.4980, 5
 212              	DMA_TD_START_CMD.4980:
 213 0020 01       		.byte	1
 214 0021 00       		.byte	0
 215 0022 00       		.byte	0
 216 0023 00       		.byte	0
 217 0024 01       		.byte	1
 218 0025 000000   		.align	2
 219              		.type	CFG_TD_LIST0.4982, %object
 220              		.size	CFG_TD_LIST0.4982, 336
 221              	CFG_TD_LIST0.4982:
 222 0028 0800     		.short	8
 223 002a 02       		.byte	2
 224 002b 23       		.byte	35
 225 002c 0000     		.short	0
 226 002e 0876     		.short	30216
 227 0030 0800     		.short	8
 228 0032 03       		.byte	3
 229 0033 23       		.byte	35
ARM GAS  C:\Users\JOSHU_~1\AppData\Local\Temp\ccXCFI4o.s 			page 8


 230 0034 0000     		.short	0
 231 0036 1076     		.short	30224
 232 0038 0800     		.short	8
 233 003a 04       		.byte	4
 234 003b 23       		.byte	35
 235 003c 0000     		.short	0
 236 003e 2876     		.short	30248
 237 0040 0800     		.short	8
 238 0042 05       		.byte	5
 239 0043 23       		.byte	35
 240 0044 0000     		.short	0
 241 0046 3076     		.short	30256
 242 0048 0500     		.short	5
 243 004a 06       		.byte	6
 244 004b 23       		.byte	35
 245 004c 0000     		.short	0
 246 004e 2070     		.short	28704
 247 0050 0500     		.short	5
 248 0052 07       		.byte	7
 249 0053 23       		.byte	35
 250 0054 0000     		.short	0
 251 0056 3070     		.short	28720
 252 0058 0500     		.short	5
 253 005a 08       		.byte	8
 254 005b 23       		.byte	35
 255 005c 0000     		.short	0
 256 005e 6070     		.short	28768
 257 0060 0500     		.short	5
 258 0062 FE       		.byte	-2
 259 0063 23       		.byte	35
 260 0064 0000     		.short	0
 261 0066 7070     		.short	28784
 262 0068 1000     		.short	16
 263 006a 0A       		.byte	10
 264 006b 22       		.byte	34
 265 006c 0000     		.short	0
 266 006e 0051     		.short	20736
 267 0070 4000     		.short	64
 268 0072 0B       		.byte	11
 269 0073 22       		.byte	34
 270 0074 0000     		.short	0
 271 0076 3051     		.short	20784
 272 0078 1000     		.short	16
 273 007a FE       		.byte	-2
 274 007b 22       		.byte	34
 275 007c 0000     		.short	0
 276 007e F051     		.short	20976
 277 0080 800B     		.short	2944
 278 0082 0D       		.byte	13
 279 0083 22       		.byte	34
 280 0084 0000     		.short	0
 281 0086 0000     		.short	0
 282 0088 0002     		.short	512
 283 008a 0E       		.byte	14
 284 008b 22       		.byte	34
 285 008c 0000     		.short	0
 286 008e 000E     		.short	3584
ARM GAS  C:\Users\JOSHU_~1\AppData\Local\Temp\ccXCFI4o.s 			page 9


 287 0090 0004     		.short	1024
 288 0092 0F       		.byte	15
 289 0093 22       		.byte	34
 290 0094 0000     		.short	0
 291 0096 0014     		.short	5120
 292 0098 0005     		.short	1280
 293 009a 10       		.byte	16
 294 009b 22       		.byte	34
 295 009c 0000     		.short	0
 296 009e 0040     		.short	16384
 297 00a0 8000     		.short	128
 298 00a2 11       		.byte	17
 299 00a3 22       		.byte	34
 300 00a4 0000     		.short	0
 301 00a6 0046     		.short	17920
 302 00a8 0003     		.short	768
 303 00aa 12       		.byte	18
 304 00ab 22       		.byte	34
 305 00ac 0000     		.short	0
 306 00ae 0047     		.short	18176
 307 00b0 8000     		.short	128
 308 00b2 FE       		.byte	-2
 309 00b3 22       		.byte	34
 310 00b4 0000     		.short	0
 311 00b6 004C     		.short	19456
 312 00b8 0700     		.short	7
 313 00ba 14       		.byte	20
 314 00bb 23       		.byte	35
 315 00bc 0000     		.short	0
 316 00be 1052     		.short	21008
 317 00c0 0600     		.short	6
 318 00c2 15       		.byte	21
 319 00c3 23       		.byte	35
 320 00c4 0000     		.short	0
 321 00c6 6052     		.short	21088
 322 00c8 2000     		.short	32
 323 00ca FE       		.byte	-2
 324 00cb 23       		.byte	35
 325 00cc 0000     		.short	0
 326 00ce 7065     		.short	25968
 327 00d0 8000     		.short	128
 328 00d2 17       		.byte	23
 329 00d3 23       		.byte	35
 330 00d4 0000     		.short	0
 331 00d6 000C     		.short	3072
 332 00d8 8000     		.short	128
 333 00da 18       		.byte	24
 334 00db 23       		.byte	35
 335 00dc 0000     		.short	0
 336 00de 800C     		.short	3200
 337 00e0 8000     		.short	128
 338 00e2 19       		.byte	25
 339 00e3 23       		.byte	35
 340 00e4 0000     		.short	0
 341 00e6 0018     		.short	6144
 342 00e8 8000     		.short	128
 343 00ea 1A       		.byte	26
ARM GAS  C:\Users\JOSHU_~1\AppData\Local\Temp\ccXCFI4o.s 			page 10


 344 00eb 23       		.byte	35
 345 00ec 0000     		.short	0
 346 00ee 8018     		.short	6272
 347 00f0 8000     		.short	128
 348 00f2 1B       		.byte	27
 349 00f3 23       		.byte	35
 350 00f4 0000     		.short	0
 351 00f6 001A     		.short	6656
 352 00f8 8000     		.short	128
 353 00fa 1C       		.byte	28
 354 00fb 23       		.byte	35
 355 00fc 0000     		.short	0
 356 00fe 801A     		.short	6784
 357 0100 1000     		.short	16
 358 0102 1D       		.byte	29
 359 0103 23       		.byte	35
 360 0104 0000     		.short	0
 361 0106 1050     		.short	20496
 362 0108 1000     		.short	16
 363 010a 1E       		.byte	30
 364 010b 23       		.byte	35
 365 010c 0000     		.short	0
 366 010e 0050     		.short	20480
 367 0110 8000     		.short	128
 368 0112 1F       		.byte	31
 369 0113 23       		.byte	35
 370 0114 0000     		.short	0
 371 0116 004D     		.short	19712
 372 0118 8000     		.short	128
 373 011a 20       		.byte	32
 374 011b 23       		.byte	35
 375 011c 0000     		.short	0
 376 011e 804D     		.short	19840
 377 0120 8000     		.short	128
 378 0122 21       		.byte	33
 379 0123 23       		.byte	35
 380 0124 0000     		.short	0
 381 0126 804C     		.short	19584
 382 0128 8000     		.short	128
 383 012a 22       		.byte	34
 384 012b 23       		.byte	35
 385 012c 0000     		.short	0
 386 012e 8046     		.short	18048
 387 0130 8000     		.short	128
 388 0132 23       		.byte	35
 389 0133 23       		.byte	35
 390 0134 0000     		.short	0
 391 0136 0045     		.short	17664
 392 0138 8000     		.short	128
 393 013a 24       		.byte	36
 394 013b 23       		.byte	35
 395 013c 0000     		.short	0
 396 013e 8045     		.short	17792
 397 0140 8000     		.short	128
 398 0142 25       		.byte	37
 399 0143 23       		.byte	35
 400 0144 0000     		.short	0
ARM GAS  C:\Users\JOSHU_~1\AppData\Local\Temp\ccXCFI4o.s 			page 11


 401 0146 001B     		.short	6912
 402 0148 8000     		.short	128
 403 014a 26       		.byte	38
 404 014b 23       		.byte	35
 405 014c 0000     		.short	0
 406 014e 801B     		.short	7040
 407 0150 8000     		.short	128
 408 0152 27       		.byte	39
 409 0153 23       		.byte	35
 410 0154 0000     		.short	0
 411 0156 0019     		.short	6400
 412 0158 8000     		.short	128
 413 015a 28       		.byte	40
 414 015b 23       		.byte	35
 415 015c 0000     		.short	0
 416 015e 8019     		.short	6528
 417 0160 8000     		.short	128
 418 0162 29       		.byte	41
 419 0163 23       		.byte	35
 420 0164 0000     		.short	0
 421 0166 800B     		.short	2944
 422 0168 8000     		.short	128
 423 016a 2A       		.byte	42
 424 016b 23       		.byte	35
 425 016c 0000     		.short	0
 426 016e 000D     		.short	3328
 427 0170 8000     		.short	128
 428 0172 FE       		.byte	-2
 429 0173 23       		.byte	35
 430 0174 0000     		.short	0
 431 0176 800D     		.short	3456
 432              		.section	.text.cfg_dma_init,"ax",%progbits
 433              		.align	2
 434              		.thumb
 435              		.thumb_func
 436              		.type	cfg_dma_init, %function
 437              	cfg_dma_init:
 438              	.LFB4:
 171:Generated_Source\PSoC5/cyfitter_cfg.c **** #endif /* CY_CFG_CLOCK_STARTUP_ERROR_CALLBACK */
 172:Generated_Source\PSoC5/cyfitter_cfg.c **** }
 173:Generated_Source\PSoC5/cyfitter_cfg.c **** #endif
 174:Generated_Source\PSoC5/cyfitter_cfg.c **** 
 175:Generated_Source\PSoC5/cyfitter_cfg.c **** /* IOPORT_2 Address: CYDEV_PRTDSI_PRT2_BASE Size (bytes): 7 */
 176:Generated_Source\PSoC5/cyfitter_cfg.c **** #define BS_IOPORT_2_VAL ((const uint8 CYFAR *)0x48000000u)
 177:Generated_Source\PSoC5/cyfitter_cfg.c **** 
 178:Generated_Source\PSoC5/cyfitter_cfg.c **** /* IOPORT_7 Address: CYDEV_PRTDSI_PRT12_BASE Size (bytes): 6 */
 179:Generated_Source\PSoC5/cyfitter_cfg.c **** #define BS_IOPORT_7_VAL ((const uint8 CYFAR *)0x48000008u)
 180:Generated_Source\PSoC5/cyfitter_cfg.c **** 
 181:Generated_Source\PSoC5/cyfitter_cfg.c **** /* UDB_0_4_1_CONFIG Address: CYDEV_UCFG_B0_P6_U0_BASE Size (bytes): 128 */
 182:Generated_Source\PSoC5/cyfitter_cfg.c **** #define BS_UDB_0_4_1_CONFIG_VAL ((const uint8 CYFAR *)0x48000010u)
 183:Generated_Source\PSoC5/cyfitter_cfg.c **** 
 184:Generated_Source\PSoC5/cyfitter_cfg.c **** /* UDB_0_4_0_CONFIG Address: CYDEV_UCFG_B0_P6_U1_BASE Size (bytes): 128 */
 185:Generated_Source\PSoC5/cyfitter_cfg.c **** #define BS_UDB_0_4_0_CONFIG_VAL ((const uint8 CYFAR *)0x48000090u)
 186:Generated_Source\PSoC5/cyfitter_cfg.c **** 
 187:Generated_Source\PSoC5/cyfitter_cfg.c **** /* UDB_0_1_1_CONFIG Address: CYDEV_UCFG_B1_P4_U0_BASE Size (bytes): 128 */
 188:Generated_Source\PSoC5/cyfitter_cfg.c **** #define BS_UDB_0_1_1_CONFIG_VAL ((const uint8 CYFAR *)0x48000110u)
 189:Generated_Source\PSoC5/cyfitter_cfg.c **** 
ARM GAS  C:\Users\JOSHU_~1\AppData\Local\Temp\ccXCFI4o.s 			page 12


 190:Generated_Source\PSoC5/cyfitter_cfg.c **** /* UDB_0_1_0_CONFIG Address: CYDEV_UCFG_B1_P4_U1_BASE Size (bytes): 128 */
 191:Generated_Source\PSoC5/cyfitter_cfg.c **** #define BS_UDB_0_1_0_CONFIG_VAL ((const uint8 CYFAR *)0x48000190u)
 192:Generated_Source\PSoC5/cyfitter_cfg.c **** 
 193:Generated_Source\PSoC5/cyfitter_cfg.c **** /* UDB_0_0_0_CONFIG Address: CYDEV_UCFG_B1_P5_U0_BASE Size (bytes): 128 */
 194:Generated_Source\PSoC5/cyfitter_cfg.c **** #define BS_UDB_0_0_0_CONFIG_VAL ((const uint8 CYFAR *)0x48000210u)
 195:Generated_Source\PSoC5/cyfitter_cfg.c **** 
 196:Generated_Source\PSoC5/cyfitter_cfg.c **** /* UDB_0_0_1_CONFIG Address: CYDEV_UCFG_B1_P5_U1_BASE Size (bytes): 128 */
 197:Generated_Source\PSoC5/cyfitter_cfg.c **** #define BS_UDB_0_0_1_CONFIG_VAL ((const uint8 CYFAR *)0x48000290u)
 198:Generated_Source\PSoC5/cyfitter_cfg.c **** 
 199:Generated_Source\PSoC5/cyfitter_cfg.c **** /* UWRK_B1_WRK_STATCTL_BITS Address: CYDEV_UWRK_UWRK8_B1_BASE + 0x00000070u Size (bytes): 32 */
 200:Generated_Source\PSoC5/cyfitter_cfg.c **** #define BS_UWRK_B1_WRK_STATCTL_BITS_VAL ((const uint8 CYFAR *)0x48000310u)
 201:Generated_Source\PSoC5/cyfitter_cfg.c **** 
 202:Generated_Source\PSoC5/cyfitter_cfg.c **** /* UCFG_BCTL1 Address: CYREG_BCTL1_MDCLK_EN Size (bytes): 16 */
 203:Generated_Source\PSoC5/cyfitter_cfg.c **** #define BS_UCFG_BCTL1_VAL ((const uint8 CYFAR *)0x48000330u)
 204:Generated_Source\PSoC5/cyfitter_cfg.c **** 
 205:Generated_Source\PSoC5/cyfitter_cfg.c **** /* UCFG_BCTL0 Address: CYREG_BCTL0_MDCLK_EN Size (bytes): 16 */
 206:Generated_Source\PSoC5/cyfitter_cfg.c **** #define BS_UCFG_BCTL0_VAL ((const uint8 CYFAR *)0x48000340u)
 207:Generated_Source\PSoC5/cyfitter_cfg.c **** 
 208:Generated_Source\PSoC5/cyfitter_cfg.c **** /* DSISWITCH_0_0 Address: CYDEV_UCFG_DSI13_BASE Size (bytes): 128 */
 209:Generated_Source\PSoC5/cyfitter_cfg.c **** #define BS_DSISWITCH_0_0_VAL ((const uint8 CYFAR *)0x48000350u)
 210:Generated_Source\PSoC5/cyfitter_cfg.c **** 
 211:Generated_Source\PSoC5/cyfitter_cfg.c **** /* DSI0_0_HV_ROUTING Address: CYDEV_UCFG_DSI13_BASE + 0x00000080u Size (bytes): 128 */
 212:Generated_Source\PSoC5/cyfitter_cfg.c **** #define BS_DSI0_0_HV_ROUTING_VAL ((const uint8 CYFAR *)0x480003D0u)
 213:Generated_Source\PSoC5/cyfitter_cfg.c **** 
 214:Generated_Source\PSoC5/cyfitter_cfg.c **** /* DSI0_1_HV_ROUTING Address: CYDEV_UCFG_DSI12_BASE + 0x00000080u Size (bytes): 128 */
 215:Generated_Source\PSoC5/cyfitter_cfg.c **** #define BS_DSI0_1_HV_ROUTING_VAL ((const uint8 CYFAR *)0x48000450u)
 216:Generated_Source\PSoC5/cyfitter_cfg.c **** 
 217:Generated_Source\PSoC5/cyfitter_cfg.c **** /* DSI0_3_HV_ROUTING Address: CYDEV_UCFG_DSI6_BASE + 0x00000080u Size (bytes): 128 */
 218:Generated_Source\PSoC5/cyfitter_cfg.c **** #define BS_DSI0_3_HV_ROUTING_VAL ((const uint8 CYFAR *)0x480004D0u)
 219:Generated_Source\PSoC5/cyfitter_cfg.c **** 
 220:Generated_Source\PSoC5/cyfitter_cfg.c **** /* DSISWITCH_0_4 Address: CYDEV_UCFG_DSI5_BASE Size (bytes): 128 */
 221:Generated_Source\PSoC5/cyfitter_cfg.c **** #define BS_DSISWITCH_0_4_VAL ((const uint8 CYFAR *)0x48000550u)
 222:Generated_Source\PSoC5/cyfitter_cfg.c **** 
 223:Generated_Source\PSoC5/cyfitter_cfg.c **** /* DSI0_4_HV_ROUTING Address: CYDEV_UCFG_DSI5_BASE + 0x00000080u Size (bytes): 128 */
 224:Generated_Source\PSoC5/cyfitter_cfg.c **** #define BS_DSI0_4_HV_ROUTING_VAL ((const uint8 CYFAR *)0x480005D0u)
 225:Generated_Source\PSoC5/cyfitter_cfg.c **** 
 226:Generated_Source\PSoC5/cyfitter_cfg.c **** /* UDBSWITCH_0_0 Address: CYDEV_UCFG_B1_P5_ROUTE_BASE Size (bytes): 128 */
 227:Generated_Source\PSoC5/cyfitter_cfg.c **** #define BS_UDBSWITCH_0_0_VAL ((const uint8 CYFAR *)0x48000650u)
 228:Generated_Source\PSoC5/cyfitter_cfg.c **** 
 229:Generated_Source\PSoC5/cyfitter_cfg.c **** /* UDB_1_0_HV_ROUTING Address: CYDEV_UCFG_B1_P5_ROUTE_BASE + 0x00000080u Size (bytes): 128 */
 230:Generated_Source\PSoC5/cyfitter_cfg.c **** #define BS_UDB_1_0_HV_ROUTING_VAL ((const uint8 CYFAR *)0x480006D0u)
 231:Generated_Source\PSoC5/cyfitter_cfg.c **** 
 232:Generated_Source\PSoC5/cyfitter_cfg.c **** /* UDBSWITCH_0_1 Address: CYDEV_UCFG_B1_P4_ROUTE_BASE Size (bytes): 128 */
 233:Generated_Source\PSoC5/cyfitter_cfg.c **** #define BS_UDBSWITCH_0_1_VAL ((const uint8 CYFAR *)0x48000750u)
 234:Generated_Source\PSoC5/cyfitter_cfg.c **** 
 235:Generated_Source\PSoC5/cyfitter_cfg.c **** /* UDB_1_1_HV_ROUTING Address: CYDEV_UCFG_B1_P4_ROUTE_BASE + 0x00000080u Size (bytes): 128 */
 236:Generated_Source\PSoC5/cyfitter_cfg.c **** #define BS_UDB_1_1_HV_ROUTING_VAL ((const uint8 CYFAR *)0x480007D0u)
 237:Generated_Source\PSoC5/cyfitter_cfg.c **** 
 238:Generated_Source\PSoC5/cyfitter_cfg.c **** /* UDB_1_3_HV_ROUTING Address: CYDEV_UCFG_B0_P5_ROUTE_BASE + 0x00000080u Size (bytes): 128 */
 239:Generated_Source\PSoC5/cyfitter_cfg.c **** #define BS_UDB_1_3_HV_ROUTING_VAL ((const uint8 CYFAR *)0x48000850u)
 240:Generated_Source\PSoC5/cyfitter_cfg.c **** 
 241:Generated_Source\PSoC5/cyfitter_cfg.c **** /* UDBSWITCH_0_4 Address: CYDEV_UCFG_B0_P6_ROUTE_BASE Size (bytes): 128 */
 242:Generated_Source\PSoC5/cyfitter_cfg.c **** #define BS_UDBSWITCH_0_4_VAL ((const uint8 CYFAR *)0x480008D0u)
 243:Generated_Source\PSoC5/cyfitter_cfg.c **** 
 244:Generated_Source\PSoC5/cyfitter_cfg.c **** /* UDB_1_4_HV_ROUTING Address: CYDEV_UCFG_B0_P6_ROUTE_BASE + 0x00000080u Size (bytes): 128 */
 245:Generated_Source\PSoC5/cyfitter_cfg.c **** #define BS_UDB_1_4_HV_ROUTING_VAL ((const uint8 CYFAR *)0x48000950u)
 246:Generated_Source\PSoC5/cyfitter_cfg.c **** 
ARM GAS  C:\Users\JOSHU_~1\AppData\Local\Temp\ccXCFI4o.s 			page 13


 247:Generated_Source\PSoC5/cyfitter_cfg.c **** /* IOPINS0_7 Address: CYREG_PRT12_DR Size (bytes): 10 */
 248:Generated_Source\PSoC5/cyfitter_cfg.c **** #define BS_IOPINS0_7_VAL ((const uint8 CYFAR *)0x480009D0u)
 249:Generated_Source\PSoC5/cyfitter_cfg.c **** 
 250:Generated_Source\PSoC5/cyfitter_cfg.c **** /* IOPINS0_1 Address: CYREG_PRT1_DM0 Size (bytes): 8 */
 251:Generated_Source\PSoC5/cyfitter_cfg.c **** #define BS_IOPINS0_1_VAL ((const uint8 CYFAR *)0x480009DCu)
 252:Generated_Source\PSoC5/cyfitter_cfg.c **** 
 253:Generated_Source\PSoC5/cyfitter_cfg.c **** /* IOPINS0_2 Address: CYREG_PRT2_DR Size (bytes): 10 */
 254:Generated_Source\PSoC5/cyfitter_cfg.c **** #define BS_IOPINS0_2_VAL ((const uint8 CYFAR *)0x480009E4u)
 255:Generated_Source\PSoC5/cyfitter_cfg.c **** 
 256:Generated_Source\PSoC5/cyfitter_cfg.c **** 
 257:Generated_Source\PSoC5/cyfitter_cfg.c **** /*******************************************************************************
 258:Generated_Source\PSoC5/cyfitter_cfg.c **** * Function Name: cfg_dma_init
 259:Generated_Source\PSoC5/cyfitter_cfg.c **** ********************************************************************************
 260:Generated_Source\PSoC5/cyfitter_cfg.c **** * Summary:
 261:Generated_Source\PSoC5/cyfitter_cfg.c **** *  This function is used to copy device configuration data from constant values
 262:Generated_Source\PSoC5/cyfitter_cfg.c **** *  stored in memory into the proper chip configuration registers using DMA.  It
 263:Generated_Source\PSoC5/cyfitter_cfg.c **** *  pulls data out of the CFG_TD_LISTs to know exactly how/what to configure.
 264:Generated_Source\PSoC5/cyfitter_cfg.c **** *
 265:Generated_Source\PSoC5/cyfitter_cfg.c **** * Parameters:  
 266:Generated_Source\PSoC5/cyfitter_cfg.c **** *   void
 267:Generated_Source\PSoC5/cyfitter_cfg.c **** *
 268:Generated_Source\PSoC5/cyfitter_cfg.c **** * Return:
 269:Generated_Source\PSoC5/cyfitter_cfg.c **** *   void
 270:Generated_Source\PSoC5/cyfitter_cfg.c **** *
 271:Generated_Source\PSoC5/cyfitter_cfg.c **** *******************************************************************************/
 272:Generated_Source\PSoC5/cyfitter_cfg.c **** static void cfg_dma_init(void);
 273:Generated_Source\PSoC5/cyfitter_cfg.c **** static void cfg_dma_init(void)
 274:Generated_Source\PSoC5/cyfitter_cfg.c **** {
 439              		.loc 1 274 0
 440              		.cfi_startproc
 441              		@ args = 0, pretend = 0, frame = 8
 442              		@ frame_needed = 1, uses_anonymous_args = 0
 443              		@ link register save eliminated.
 444 0000 80B4     		push	{r7}
 445              		.cfi_def_cfa_offset 4
 446              		.cfi_offset 7, -4
 447 0002 83B0     		sub	sp, sp, #12
 448              		.cfi_def_cfa_offset 16
 449 0004 00AF     		add	r7, sp, #0
 450              		.cfi_def_cfa_register 7
 275:Generated_Source\PSoC5/cyfitter_cfg.c **** 	/* TD structure for little-endian systems. Does not require endian swap */
 276:Generated_Source\PSoC5/cyfitter_cfg.c **** 	CYPACKED struct td_t {
 277:Generated_Source\PSoC5/cyfitter_cfg.c **** 		uint16 size;
 278:Generated_Source\PSoC5/cyfitter_cfg.c **** 		uint8 next_td_ptr;
 279:Generated_Source\PSoC5/cyfitter_cfg.c **** 		uint8 flags;
 280:Generated_Source\PSoC5/cyfitter_cfg.c **** 		uint16 src;
 281:Generated_Source\PSoC5/cyfitter_cfg.c **** 		uint16 dest;
 282:Generated_Source\PSoC5/cyfitter_cfg.c **** 	} CYPACKED_ATTR;
 283:Generated_Source\PSoC5/cyfitter_cfg.c **** 
 284:Generated_Source\PSoC5/cyfitter_cfg.c **** 	/* PHUB_CH1_CFGMEM_CFG0/1 initialization data */
 285:Generated_Source\PSoC5/cyfitter_cfg.c **** 	DMAINITSEC static const uint8 CYCODE CH1_ADDR_DATA0[] = { 0x01u, 0x00u, 0x00u, 0x00u, 0x00u, 0x20u
 286:Generated_Source\PSoC5/cyfitter_cfg.c **** 
 287:Generated_Source\PSoC5/cyfitter_cfg.c **** 	/* PHUB_CH2_CFGMEM_CFG0/1 initialization data */
 288:Generated_Source\PSoC5/cyfitter_cfg.c **** 	DMAINITSEC static const uint8 CYCODE CH2_ADDR_DATA0[] = { 0x01u, 0x00u, 0x00u, 0x00u, 0x00u, 0x20u
 289:Generated_Source\PSoC5/cyfitter_cfg.c **** 
 290:Generated_Source\PSoC5/cyfitter_cfg.c **** 	/* PHUB_CH5_CFGMEM_CFG0/1 initialization data */
 291:Generated_Source\PSoC5/cyfitter_cfg.c **** 	DMAINITSEC static const uint8 CYCODE CH5_ADDR_DATA0[] = { 0x01u, 0x00u, 0x00u, 0x00u, 0x00u, 0x48u
ARM GAS  C:\Users\JOSHU_~1\AppData\Local\Temp\ccXCFI4o.s 			page 14


 292:Generated_Source\PSoC5/cyfitter_cfg.c **** 
 293:Generated_Source\PSoC5/cyfitter_cfg.c **** 	/* PHUB_CH6_CFGMEM_CFG0/1 initialization data */
 294:Generated_Source\PSoC5/cyfitter_cfg.c **** 	DMAINITSEC static const uint8 CYCODE CH6_ADDR_DATA0[] = { 0x01u, 0x00u, 0x00u, 0x00u, 0x00u, 0x48u
 295:Generated_Source\PSoC5/cyfitter_cfg.c **** 
 296:Generated_Source\PSoC5/cyfitter_cfg.c **** 	/* Initialization data for each DMA channel's TD registers */
 297:Generated_Source\PSoC5/cyfitter_cfg.c **** 	DMAINITSEC static const uint8 CYCODE DMA_TD_START_CMD[] = { 0x01u, 0x00u, 0x00u, 0x00u, 0x01u };
 298:Generated_Source\PSoC5/cyfitter_cfg.c **** 
 299:Generated_Source\PSoC5/cyfitter_cfg.c **** 	CYALIGNED static uint32 CYXDATA DMA_ZERO_VAL;
 300:Generated_Source\PSoC5/cyfitter_cfg.c **** 
 301:Generated_Source\PSoC5/cyfitter_cfg.c **** 	/* This table holds all of the initialization data necessary for the DMA
 302:Generated_Source\PSoC5/cyfitter_cfg.c **** 	   process to transfer data from the source location to the destination. */
 303:Generated_Source\PSoC5/cyfitter_cfg.c **** 	/* Source addresses can be relocated, but only when in 32bit addresses.
 304:Generated_Source\PSoC5/cyfitter_cfg.c **** 	   Because the standard TD table only has 16bit addresses, we generate a
 305:Generated_Source\PSoC5/cyfitter_cfg.c **** 	   separate CFG_TD_ADDR table for the source addresses that supports 32bit
 306:Generated_Source\PSoC5/cyfitter_cfg.c **** 	   addresses. */
 307:Generated_Source\PSoC5/cyfitter_cfg.c **** 	DMAINITSEC static const struct td_t CYCODE CFG_TD_LIST0[] = {
 308:Generated_Source\PSoC5/cyfitter_cfg.c **** 		/* Size, Next, Flags, Source, Destination */
 309:Generated_Source\PSoC5/cyfitter_cfg.c **** 		{ 8u, 0x02u, 0x23u, (uint16)(uint32)(0u), (uint16)(CYREG_PHUB_CFGMEM1_CFG0) },	/* TD 1 */
 310:Generated_Source\PSoC5/cyfitter_cfg.c **** 		{ 8u, 0x03u, 0x23u, (uint16)(uint32)(0u), (uint16)(CYREG_PHUB_CFGMEM2_CFG0) },	/* TD 2 */
 311:Generated_Source\PSoC5/cyfitter_cfg.c **** 		{ 8u, 0x04u, 0x23u, (uint16)(uint32)(0u), (uint16)(CYREG_PHUB_CFGMEM5_CFG0) },	/* TD 3 */
 312:Generated_Source\PSoC5/cyfitter_cfg.c **** 		{ 8u, 0x05u, 0x23u, (uint16)(uint32)(0u), (uint16)(CYREG_PHUB_CFGMEM6_CFG0) },	/* TD 4 */
 313:Generated_Source\PSoC5/cyfitter_cfg.c **** 		{ 5u, 0x06u, 0x23u, (uint16)(uint32)(0u), (uint16)(CYREG_PHUB_CH1_BASIC_CFG) },	/* TD 5 */
 314:Generated_Source\PSoC5/cyfitter_cfg.c **** 		{ 5u, 0x07u, 0x23u, (uint16)(uint32)(0u), (uint16)(CYREG_PHUB_CH2_BASIC_CFG) },	/* TD 6 */
 315:Generated_Source\PSoC5/cyfitter_cfg.c **** 		{ 5u, 0x08u, 0x23u, (uint16)(uint32)(0u), (uint16)(CYREG_PHUB_CH5_BASIC_CFG) },	/* TD 7 */
 316:Generated_Source\PSoC5/cyfitter_cfg.c **** 		{ 5u, 0xFEu, 0x23u, (uint16)(uint32)(0u), (uint16)(CYREG_PHUB_CH6_BASIC_CFG) },	/* TD 8 */
 317:Generated_Source\PSoC5/cyfitter_cfg.c **** 		{ 16u, 0x0Au, 0x22u, (uint16)(uint32)(0u), (uint16)(CYREG_PRT0_DR) },	/* TD 9 */
 318:Generated_Source\PSoC5/cyfitter_cfg.c **** 		{ 64u, 0x0Bu, 0x22u, (uint16)(uint32)(0u), (uint16)(CYREG_PRT3_DR) },	/* TD 10 */
 319:Generated_Source\PSoC5/cyfitter_cfg.c **** 		{ 16u, 0xFEu, 0x22u, (uint16)(uint32)(0u), (uint16)(CYREG_PRT15_DR) },	/* TD 11 */
 320:Generated_Source\PSoC5/cyfitter_cfg.c **** 		{ 2944u, 0x0Du, 0x22u, (uint16)(uint32)(0u), (uint16)(CYDEV_UCFG_B0_P0_U0_BASE) },	/* TD 12 */
 321:Generated_Source\PSoC5/cyfitter_cfg.c **** 		{ 512u, 0x0Eu, 0x22u, (uint16)(uint32)(0u), (uint16)(CYDEV_UCFG_B0_P7_U0_BASE) },	/* TD 13 */
 322:Generated_Source\PSoC5/cyfitter_cfg.c **** 		{ 1024u, 0x0Fu, 0x22u, (uint16)(uint32)(0u), (uint16)(CYDEV_UCFG_B1_P2_U0_BASE) },	/* TD 14 */
 323:Generated_Source\PSoC5/cyfitter_cfg.c **** 		{ 1280u, 0x10u, 0x22u, (uint16)(uint32)(0u), (uint16)(CYDEV_UCFG_DSI0_BASE) },	/* TD 15 */
 324:Generated_Source\PSoC5/cyfitter_cfg.c **** 		{ 128u, 0x11u, 0x22u, (uint16)(uint32)(0u), (uint16)(CYDEV_UCFG_DSI6_BASE) },	/* TD 16 */
 325:Generated_Source\PSoC5/cyfitter_cfg.c **** 		{ 768u, 0x12u, 0x22u, (uint16)(uint32)(0u), (uint16)(CYDEV_UCFG_DSI7_BASE) },	/* TD 17 */
 326:Generated_Source\PSoC5/cyfitter_cfg.c **** 		{ 128u, 0xFEu, 0x22u, (uint16)(uint32)(0u), (uint16)(CYDEV_UCFG_DSI12_BASE) },	/* TD 18 */
 327:Generated_Source\PSoC5/cyfitter_cfg.c **** 		{ 7u, 0x14u, 0x23u, (uint16)(uint32)(0u), (uint16)(CYDEV_PRTDSI_PRT2_BASE) },	/* TD 19 */
 328:Generated_Source\PSoC5/cyfitter_cfg.c **** 		{ 6u, 0x15u, 0x23u, (uint16)(uint32)(0u), (uint16)(CYDEV_PRTDSI_PRT12_BASE) },	/* TD 20 */
 329:Generated_Source\PSoC5/cyfitter_cfg.c **** 		{ 32u, 0xFEu, 0x23u, (uint16)(uint32)(0u), (uint16)(CYDEV_UWRK_UWRK8_B1_BASE + 0x00000070u) },	/*
 330:Generated_Source\PSoC5/cyfitter_cfg.c **** 		{ 128u, 0x17u, 0x23u, (uint16)(uint32)(0u), (uint16)(CYDEV_UCFG_B0_P6_U0_BASE) },	/* TD 22 */
 331:Generated_Source\PSoC5/cyfitter_cfg.c **** 		{ 128u, 0x18u, 0x23u, (uint16)(uint32)(0u), (uint16)(CYDEV_UCFG_B0_P6_U1_BASE) },	/* TD 23 */
 332:Generated_Source\PSoC5/cyfitter_cfg.c **** 		{ 128u, 0x19u, 0x23u, (uint16)(uint32)(0u), (uint16)(CYDEV_UCFG_B1_P4_U0_BASE) },	/* TD 24 */
 333:Generated_Source\PSoC5/cyfitter_cfg.c **** 		{ 128u, 0x1Au, 0x23u, (uint16)(uint32)(0u), (uint16)(CYDEV_UCFG_B1_P4_U1_BASE) },	/* TD 25 */
 334:Generated_Source\PSoC5/cyfitter_cfg.c **** 		{ 128u, 0x1Bu, 0x23u, (uint16)(uint32)(0u), (uint16)(CYDEV_UCFG_B1_P5_U0_BASE) },	/* TD 26 */
 335:Generated_Source\PSoC5/cyfitter_cfg.c **** 		{ 128u, 0x1Cu, 0x23u, (uint16)(uint32)(0u), (uint16)(CYDEV_UCFG_B1_P5_U1_BASE) },	/* TD 27 */
 336:Generated_Source\PSoC5/cyfitter_cfg.c **** 		{ 16u, 0x1Du, 0x23u, (uint16)(uint32)(0u), (uint16)(CYREG_BCTL1_MDCLK_EN) },	/* TD 28 */
 337:Generated_Source\PSoC5/cyfitter_cfg.c **** 		{ 16u, 0x1Eu, 0x23u, (uint16)(uint32)(0u), (uint16)(CYREG_BCTL0_MDCLK_EN) },	/* TD 29 */
 338:Generated_Source\PSoC5/cyfitter_cfg.c **** 		{ 128u, 0x1Fu, 0x23u, (uint16)(uint32)(0u), (uint16)(CYDEV_UCFG_DSI13_BASE) },	/* TD 30 */
 339:Generated_Source\PSoC5/cyfitter_cfg.c **** 		{ 128u, 0x20u, 0x23u, (uint16)(uint32)(0u), (uint16)(CYDEV_UCFG_DSI13_BASE + 0x00000080u) },	/* T
 340:Generated_Source\PSoC5/cyfitter_cfg.c **** 		{ 128u, 0x21u, 0x23u, (uint16)(uint32)(0u), (uint16)(CYDEV_UCFG_DSI12_BASE + 0x00000080u) },	/* T
 341:Generated_Source\PSoC5/cyfitter_cfg.c **** 		{ 128u, 0x22u, 0x23u, (uint16)(uint32)(0u), (uint16)(CYDEV_UCFG_DSI6_BASE + 0x00000080u) },	/* TD
 342:Generated_Source\PSoC5/cyfitter_cfg.c **** 		{ 128u, 0x23u, 0x23u, (uint16)(uint32)(0u), (uint16)(CYDEV_UCFG_DSI5_BASE) },	/* TD 34 */
 343:Generated_Source\PSoC5/cyfitter_cfg.c **** 		{ 128u, 0x24u, 0x23u, (uint16)(uint32)(0u), (uint16)(CYDEV_UCFG_DSI5_BASE + 0x00000080u) },	/* TD
 344:Generated_Source\PSoC5/cyfitter_cfg.c **** 		{ 128u, 0x25u, 0x23u, (uint16)(uint32)(0u), (uint16)(CYDEV_UCFG_B1_P5_ROUTE_BASE) },	/* TD 36 */
 345:Generated_Source\PSoC5/cyfitter_cfg.c **** 		{ 128u, 0x26u, 0x23u, (uint16)(uint32)(0u), (uint16)(CYDEV_UCFG_B1_P5_ROUTE_BASE + 0x00000080u) }
 346:Generated_Source\PSoC5/cyfitter_cfg.c **** 		{ 128u, 0x27u, 0x23u, (uint16)(uint32)(0u), (uint16)(CYDEV_UCFG_B1_P4_ROUTE_BASE) },	/* TD 38 */
 347:Generated_Source\PSoC5/cyfitter_cfg.c **** 		{ 128u, 0x28u, 0x23u, (uint16)(uint32)(0u), (uint16)(CYDEV_UCFG_B1_P4_ROUTE_BASE + 0x00000080u) }
 348:Generated_Source\PSoC5/cyfitter_cfg.c **** 		{ 128u, 0x29u, 0x23u, (uint16)(uint32)(0u), (uint16)(CYDEV_UCFG_B0_P5_ROUTE_BASE + 0x00000080u) }
ARM GAS  C:\Users\JOSHU_~1\AppData\Local\Temp\ccXCFI4o.s 			page 15


 349:Generated_Source\PSoC5/cyfitter_cfg.c **** 		{ 128u, 0x2Au, 0x23u, (uint16)(uint32)(0u), (uint16)(CYDEV_UCFG_B0_P6_ROUTE_BASE) },	/* TD 41 */
 350:Generated_Source\PSoC5/cyfitter_cfg.c **** 		{ 128u, 0xFEu, 0x23u, (uint16)(uint32)(0u), (uint16)(CYDEV_UCFG_B0_P6_ROUTE_BASE + 0x00000080u) }
 351:Generated_Source\PSoC5/cyfitter_cfg.c **** 	};
 352:Generated_Source\PSoC5/cyfitter_cfg.c **** 
 353:Generated_Source\PSoC5/cyfitter_cfg.c **** 	/* Source addresses can be relocated, but only when in 32bit addresses.
 354:Generated_Source\PSoC5/cyfitter_cfg.c **** 	   Because the standard TD table only has 16bit addresses, we generate a
 355:Generated_Source\PSoC5/cyfitter_cfg.c **** 	   separate table for the source addresses that does use 32bit addresses. This
 356:Generated_Source\PSoC5/cyfitter_cfg.c **** 	   table will be re-merged with the corresponding CFG_TD_LIST table during
 357:Generated_Source\PSoC5/cyfitter_cfg.c **** 	   initialization. */
 358:Generated_Source\PSoC5/cyfitter_cfg.c **** 	static const void * const CFG_TD_ADDR0[] = {
 359:Generated_Source\PSoC5/cyfitter_cfg.c **** 		(const void *)(CH1_ADDR_DATA0),	/* TD 1 */
 360:Generated_Source\PSoC5/cyfitter_cfg.c **** 		(const void *)(CH2_ADDR_DATA0),	/* TD 2 */
 361:Generated_Source\PSoC5/cyfitter_cfg.c **** 		(const void *)(CH5_ADDR_DATA0),	/* TD 3 */
 362:Generated_Source\PSoC5/cyfitter_cfg.c **** 		(const void *)(CH6_ADDR_DATA0),	/* TD 4 */
 363:Generated_Source\PSoC5/cyfitter_cfg.c **** 		(const void *)(DMA_TD_START_CMD),	/* TD 5 */
 364:Generated_Source\PSoC5/cyfitter_cfg.c **** 		(const void *)(DMA_TD_START_CMD),	/* TD 6 */
 365:Generated_Source\PSoC5/cyfitter_cfg.c **** 		(const void *)(DMA_TD_START_CMD),	/* TD 7 */
 366:Generated_Source\PSoC5/cyfitter_cfg.c **** 		(const void *)(DMA_TD_START_CMD),	/* TD 8 */
 367:Generated_Source\PSoC5/cyfitter_cfg.c **** 		(const void *)(&DMA_ZERO_VAL),	/* TD 9 */
 368:Generated_Source\PSoC5/cyfitter_cfg.c **** 		(const void *)(&DMA_ZERO_VAL),	/* TD 10 */
 369:Generated_Source\PSoC5/cyfitter_cfg.c **** 		(const void *)(&DMA_ZERO_VAL),	/* TD 11 */
 370:Generated_Source\PSoC5/cyfitter_cfg.c **** 		(const void *)(&DMA_ZERO_VAL),	/* TD 12 */
 371:Generated_Source\PSoC5/cyfitter_cfg.c **** 		(const void *)(&DMA_ZERO_VAL),	/* TD 13 */
 372:Generated_Source\PSoC5/cyfitter_cfg.c **** 		(const void *)(&DMA_ZERO_VAL),	/* TD 14 */
 373:Generated_Source\PSoC5/cyfitter_cfg.c **** 		(const void *)(&DMA_ZERO_VAL),	/* TD 15 */
 374:Generated_Source\PSoC5/cyfitter_cfg.c **** 		(const void *)(&DMA_ZERO_VAL),	/* TD 16 */
 375:Generated_Source\PSoC5/cyfitter_cfg.c **** 		(const void *)(&DMA_ZERO_VAL),	/* TD 17 */
 376:Generated_Source\PSoC5/cyfitter_cfg.c **** 		(const void *)(&DMA_ZERO_VAL),	/* TD 18 */
 377:Generated_Source\PSoC5/cyfitter_cfg.c **** 		(const void *)(BS_IOPORT_2_VAL),	/* TD 19 */
 378:Generated_Source\PSoC5/cyfitter_cfg.c **** 		(const void *)(BS_IOPORT_7_VAL),	/* TD 20 */
 379:Generated_Source\PSoC5/cyfitter_cfg.c **** 		(const void *)(BS_UWRK_B1_WRK_STATCTL_BITS_VAL),	/* TD 21 */
 380:Generated_Source\PSoC5/cyfitter_cfg.c **** 		(const void *)(BS_UDB_0_4_1_CONFIG_VAL),	/* TD 22 */
 381:Generated_Source\PSoC5/cyfitter_cfg.c **** 		(const void *)(BS_UDB_0_4_0_CONFIG_VAL),	/* TD 23 */
 382:Generated_Source\PSoC5/cyfitter_cfg.c **** 		(const void *)(BS_UDB_0_1_1_CONFIG_VAL),	/* TD 24 */
 383:Generated_Source\PSoC5/cyfitter_cfg.c **** 		(const void *)(BS_UDB_0_1_0_CONFIG_VAL),	/* TD 25 */
 384:Generated_Source\PSoC5/cyfitter_cfg.c **** 		(const void *)(BS_UDB_0_0_0_CONFIG_VAL),	/* TD 26 */
 385:Generated_Source\PSoC5/cyfitter_cfg.c **** 		(const void *)(BS_UDB_0_0_1_CONFIG_VAL),	/* TD 27 */
 386:Generated_Source\PSoC5/cyfitter_cfg.c **** 		(const void *)(BS_UCFG_BCTL1_VAL),	/* TD 28 */
 387:Generated_Source\PSoC5/cyfitter_cfg.c **** 		(const void *)(BS_UCFG_BCTL0_VAL),	/* TD 29 */
 388:Generated_Source\PSoC5/cyfitter_cfg.c **** 		(const void *)(BS_DSISWITCH_0_0_VAL),	/* TD 30 */
 389:Generated_Source\PSoC5/cyfitter_cfg.c **** 		(const void *)(BS_DSI0_0_HV_ROUTING_VAL),	/* TD 31 */
 390:Generated_Source\PSoC5/cyfitter_cfg.c **** 		(const void *)(BS_DSI0_1_HV_ROUTING_VAL),	/* TD 32 */
 391:Generated_Source\PSoC5/cyfitter_cfg.c **** 		(const void *)(BS_DSI0_3_HV_ROUTING_VAL),	/* TD 33 */
 392:Generated_Source\PSoC5/cyfitter_cfg.c **** 		(const void *)(BS_DSISWITCH_0_4_VAL),	/* TD 34 */
 393:Generated_Source\PSoC5/cyfitter_cfg.c **** 		(const void *)(BS_DSI0_4_HV_ROUTING_VAL),	/* TD 35 */
 394:Generated_Source\PSoC5/cyfitter_cfg.c **** 		(const void *)(BS_UDBSWITCH_0_0_VAL),	/* TD 36 */
 395:Generated_Source\PSoC5/cyfitter_cfg.c **** 		(const void *)(BS_UDB_1_0_HV_ROUTING_VAL),	/* TD 37 */
 396:Generated_Source\PSoC5/cyfitter_cfg.c **** 		(const void *)(BS_UDBSWITCH_0_1_VAL),	/* TD 38 */
 397:Generated_Source\PSoC5/cyfitter_cfg.c **** 		(const void *)(BS_UDB_1_1_HV_ROUTING_VAL),	/* TD 39 */
 398:Generated_Source\PSoC5/cyfitter_cfg.c **** 		(const void *)(BS_UDB_1_3_HV_ROUTING_VAL),	/* TD 40 */
 399:Generated_Source\PSoC5/cyfitter_cfg.c **** 		(const void *)(BS_UDBSWITCH_0_4_VAL),	/* TD 41 */
 400:Generated_Source\PSoC5/cyfitter_cfg.c **** 		(const void *)(BS_UDB_1_4_HV_ROUTING_VAL),	/* TD 42 */
 401:Generated_Source\PSoC5/cyfitter_cfg.c **** 	};
 402:Generated_Source\PSoC5/cyfitter_cfg.c **** 
 403:Generated_Source\PSoC5/cyfitter_cfg.c **** 
 404:Generated_Source\PSoC5/cyfitter_cfg.c **** 	uint32 i;
 405:Generated_Source\PSoC5/cyfitter_cfg.c **** 
ARM GAS  C:\Users\JOSHU_~1\AppData\Local\Temp\ccXCFI4o.s 			page 16


 406:Generated_Source\PSoC5/cyfitter_cfg.c **** 	DMA_ZERO_VAL = 0u;
 451              		.loc 1 406 0
 452 0006 434B     		ldr	r3, .L15
 453 0008 0022     		movs	r2, #0
 454 000a 1A60     		str	r2, [r3]
 407:Generated_Source\PSoC5/cyfitter_cfg.c **** 	CY_SET_REG8((void CYXDATA *)CYREG_PHUB_CFGMEM0_CFG0, 0x10u);	/* set burstcnt */
 455              		.loc 1 407 0
 456 000c 424B     		ldr	r3, .L15+4
 457 000e 1022     		movs	r2, #16
 458 0010 1A70     		strb	r2, [r3]
 408:Generated_Source\PSoC5/cyfitter_cfg.c **** 	CY_SET_REG8((void CYXDATA *)CYREG_PHUB_CH0_BASIC_CFG, 0x01u);	/* enable ch0 */
 459              		.loc 1 408 0
 460 0012 424B     		ldr	r3, .L15+8
 461 0014 0122     		movs	r2, #1
 462 0016 1A70     		strb	r2, [r3]
 409:Generated_Source\PSoC5/cyfitter_cfg.c **** 	CY_SET_REG8((void CYXDATA *)(CYREG_PHUB_CH0_BASIC_STATUS+1u), 0x00u);	/* set first TD to 0 */
 463              		.loc 1 409 0
 464 0018 414B     		ldr	r3, .L15+12
 465 001a 0022     		movs	r2, #0
 466 001c 1A70     		strb	r2, [r3]
 410:Generated_Source\PSoC5/cyfitter_cfg.c **** 	CY_SET_REG16((void CYXDATA *)CYREG_PHUB_TDMEM0_ORIG_TD0, 42u*8u);	/* transfer size */
 467              		.loc 1 410 0
 468 001e 414B     		ldr	r3, .L15+16
 469 0020 4FF4A872 		mov	r2, #336
 470 0024 1A80     		strh	r2, [r3]	@ movhi
 411:Generated_Source\PSoC5/cyfitter_cfg.c **** 	CY_SET_REG8((void CYXDATA *)(CYREG_PHUB_TDMEM0_ORIG_TD0+2u), 0x01u);	/* set next TD to 1 */
 471              		.loc 1 411 0
 472 0026 404B     		ldr	r3, .L15+20
 473 0028 0122     		movs	r2, #1
 474 002a 1A70     		strb	r2, [r3]
 412:Generated_Source\PSoC5/cyfitter_cfg.c **** 	CY_SET_REG8((void CYXDATA *)(CYREG_PHUB_TDMEM0_ORIG_TD0+3u), 0x03u);	/* set TD flags */
 475              		.loc 1 412 0
 476 002c 3F4B     		ldr	r3, .L15+24
 477 002e 0322     		movs	r2, #3
 478 0030 1A70     		strb	r2, [r3]
 413:Generated_Source\PSoC5/cyfitter_cfg.c **** 	CY_SET_REG16((void CYXDATA *)CYREG_PHUB_TDMEM0_ORIG_TD1, (uint16)((uint32)CFG_TD_LIST0 & 0x0000FFF
 479              		.loc 1 413 0
 480 0032 3F4B     		ldr	r3, .L15+28
 481 0034 3F4A     		ldr	r2, .L15+32
 482 0036 92B2     		uxth	r2, r2
 483 0038 1A80     		strh	r2, [r3]	@ movhi
 414:Generated_Source\PSoC5/cyfitter_cfg.c **** 	CY_SET_REG16((void CYXDATA *)(CYREG_PHUB_TDMEM0_ORIG_TD1+2u), CYDEV_PHUB_TDMEM1_BASE);	/* set td0'
 484              		.loc 1 414 0
 485 003a 3F4B     		ldr	r3, .L15+36
 486 003c 47F60802 		movw	r2, #30728
 487 0040 1A80     		strh	r2, [r3]	@ movhi
 415:Generated_Source\PSoC5/cyfitter_cfg.c **** 	CY_SET_REG16((void CYXDATA *)CYREG_PHUB_CFGMEM0_CFG1, (uint16)(CYDEV_FLASH_BASE >> 16));	/* set ch
 488              		.loc 1 415 0
 489 0042 3E4B     		ldr	r3, .L15+40
 490 0044 0022     		movs	r2, #0
 491 0046 1A80     		strh	r2, [r3]	@ movhi
 416:Generated_Source\PSoC5/cyfitter_cfg.c **** 	CY_SET_REG16((void CYXDATA *)(CYREG_PHUB_CFGMEM0_CFG1+2u), (uint16)(CYDEV_PHUB_TDMEM1_BASE >> 16))
 492              		.loc 1 416 0
 493 0048 3D4B     		ldr	r3, .L15+44
 494 004a 4FF48042 		mov	r2, #16384
 495 004e 1A80     		strh	r2, [r3]	@ movhi
 417:Generated_Source\PSoC5/cyfitter_cfg.c **** 	CY_SET_REG8((void CYXDATA *)(CYREG_PHUB_CH1_BASIC_STATUS+1u), 0x09u);	/* ch1 first TD: 9 */
ARM GAS  C:\Users\JOSHU_~1\AppData\Local\Temp\ccXCFI4o.s 			page 17


 496              		.loc 1 417 0
 497 0050 3C4B     		ldr	r3, .L15+48
 498 0052 0922     		movs	r2, #9
 499 0054 1A70     		strb	r2, [r3]
 418:Generated_Source\PSoC5/cyfitter_cfg.c **** 	CY_SET_REG8((void CYXDATA *)(CYREG_PHUB_CH2_BASIC_STATUS+1u), 0x0Cu);	/* ch2 first TD: 12 */
 500              		.loc 1 418 0
 501 0056 3C4B     		ldr	r3, .L15+52
 502 0058 0C22     		movs	r2, #12
 503 005a 1A70     		strb	r2, [r3]
 419:Generated_Source\PSoC5/cyfitter_cfg.c **** 	CY_SET_REG8((void CYXDATA *)(CYREG_PHUB_CH5_BASIC_STATUS+1u), 0x13u);	/* ch5 first TD: 19 */
 504              		.loc 1 419 0
 505 005c 3B4B     		ldr	r3, .L15+56
 506 005e 1322     		movs	r2, #19
 507 0060 1A70     		strb	r2, [r3]
 420:Generated_Source\PSoC5/cyfitter_cfg.c **** 	CY_SET_REG8((void CYXDATA *)(CYREG_PHUB_CH6_BASIC_STATUS+1u), 0x16u);	/* ch6 first TD: 22 */
 508              		.loc 1 420 0
 509 0062 3B4B     		ldr	r3, .L15+60
 510 0064 1622     		movs	r2, #22
 511 0066 1A70     		strb	r2, [r3]
 421:Generated_Source\PSoC5/cyfitter_cfg.c **** 
 422:Generated_Source\PSoC5/cyfitter_cfg.c **** 	CY_CFG_MEMORY_BARRIER();
 512              		.loc 1 422 0
 513 0068 BFF35F8F 		dmb	sy
 423:Generated_Source\PSoC5/cyfitter_cfg.c **** 	CY_SET_REG8((void CYXDATA *)CYREG_PHUB_CH0_ACTION, 0x01u); /* cpu_req */
 514              		.loc 1 423 0
 515 006c 394B     		ldr	r3, .L15+64
 516 006e 0122     		movs	r2, #1
 517 0070 1A70     		strb	r2, [r3]
 424:Generated_Source\PSoC5/cyfitter_cfg.c **** 	CY_CFG_MEMORY_BARRIER();
 518              		.loc 1 424 0
 519 0072 BFF35F8F 		dmb	sy
 425:Generated_Source\PSoC5/cyfitter_cfg.c **** 
 426:Generated_Source\PSoC5/cyfitter_cfg.c **** 	/* Wait for TDs to be copied into TDMEM */
 427:Generated_Source\PSoC5/cyfitter_cfg.c **** 	while (CY_GET_REG16((void CYXDATA *)CYREG_PHUB_TDMEM0_ORIG_TD0) != 0u) { }
 520              		.loc 1 427 0
 521 0076 00BF     		nop
 522              	.L7:
 523              		.loc 1 427 0 is_stmt 0 discriminator 1
 524 0078 2A4B     		ldr	r3, .L15+16
 525 007a 1B88     		ldrh	r3, [r3]	@ movhi
 526 007c 9BB2     		uxth	r3, r3
 527 007e 002B     		cmp	r3, #0
 528 0080 FAD1     		bne	.L7
 428:Generated_Source\PSoC5/cyfitter_cfg.c **** 
 429:Generated_Source\PSoC5/cyfitter_cfg.c **** 	/* Recombine TD source table (CFG_TD_ADDR0) with full TD table (CFG_TD_LIST0) */
 430:Generated_Source\PSoC5/cyfitter_cfg.c **** 	for (i = 0u; i < 42u; i++)
 529              		.loc 1 430 0 is_stmt 1
 530 0082 0023     		movs	r3, #0
 531 0084 7B60     		str	r3, [r7, #4]
 532 0086 0DE0     		b	.L8
 533              	.L9:
 431:Generated_Source\PSoC5/cyfitter_cfg.c **** 	{
 432:Generated_Source\PSoC5/cyfitter_cfg.c **** 		CY_SET_REG16((void CYXDATA *)(CYREG_PHUB_TDMEM1_ORIG_TD1 + (sizeof(struct td_t)*i)), (uint16)(uin
 534              		.loc 1 432 0 discriminator 3
 535 0088 7B68     		ldr	r3, [r7, #4]
 536 008a DA00     		lsls	r2, r3, #3
 537 008c 324B     		ldr	r3, .L15+68
ARM GAS  C:\Users\JOSHU_~1\AppData\Local\Temp\ccXCFI4o.s 			page 18


 538 008e 1344     		add	r3, r3, r2
 539 0090 1946     		mov	r1, r3
 540 0092 324A     		ldr	r2, .L15+72
 541 0094 7B68     		ldr	r3, [r7, #4]
 542 0096 52F82330 		ldr	r3, [r2, r3, lsl #2]
 543 009a 9BB2     		uxth	r3, r3
 544 009c 0B80     		strh	r3, [r1]	@ movhi
 430:Generated_Source\PSoC5/cyfitter_cfg.c **** 	{
 545              		.loc 1 430 0 discriminator 3
 546 009e 7B68     		ldr	r3, [r7, #4]
 547 00a0 0133     		adds	r3, r3, #1
 548 00a2 7B60     		str	r3, [r7, #4]
 549              	.L8:
 430:Generated_Source\PSoC5/cyfitter_cfg.c **** 	{
 550              		.loc 1 430 0 is_stmt 0 discriminator 1
 551 00a4 7B68     		ldr	r3, [r7, #4]
 552 00a6 292B     		cmp	r3, #41
 553 00a8 EED9     		bls	.L9
 433:Generated_Source\PSoC5/cyfitter_cfg.c **** 	}
 434:Generated_Source\PSoC5/cyfitter_cfg.c **** 
 435:Generated_Source\PSoC5/cyfitter_cfg.c **** 	CY_CFG_MEMORY_BARRIER();
 554              		.loc 1 435 0 is_stmt 1
 555 00aa BFF35F8F 		dmb	sy
 436:Generated_Source\PSoC5/cyfitter_cfg.c **** 	CY_SET_REG8((void CYXDATA *)CYREG_PHUB_CH0_ACTION, 0x01u); /* cpu_req */
 556              		.loc 1 436 0
 557 00ae 294B     		ldr	r3, .L15+64
 558 00b0 0122     		movs	r2, #1
 559 00b2 1A70     		strb	r2, [r3]
 437:Generated_Source\PSoC5/cyfitter_cfg.c **** 	CY_CFG_MEMORY_BARRIER();
 560              		.loc 1 437 0
 561 00b4 BFF35F8F 		dmb	sy
 438:Generated_Source\PSoC5/cyfitter_cfg.c **** 
 439:Generated_Source\PSoC5/cyfitter_cfg.c **** 	/* Wait for all DMA transfers to complete */
 440:Generated_Source\PSoC5/cyfitter_cfg.c **** 	while(0u != (CY_GET_REG8((void CYXDATA *)CYREG_PHUB_CH0_BASIC_STATUS) & 0x01u)){}
 562              		.loc 1 440 0
 563 00b8 00BF     		nop
 564              	.L10:
 565              		.loc 1 440 0 is_stmt 0 discriminator 1
 566 00ba 294B     		ldr	r3, .L15+76
 567 00bc 1B78     		ldrb	r3, [r3]
 568 00be DBB2     		uxtb	r3, r3
 569 00c0 03F00103 		and	r3, r3, #1
 570 00c4 002B     		cmp	r3, #0
 571 00c6 F8D1     		bne	.L10
 441:Generated_Source\PSoC5/cyfitter_cfg.c **** 	while(0u != (CY_GET_REG8((void CYXDATA *)CYREG_PHUB_CH1_BASIC_STATUS) & 0x01u)){}
 572              		.loc 1 441 0 is_stmt 1
 573 00c8 00BF     		nop
 574              	.L11:
 575              		.loc 1 441 0 is_stmt 0 discriminator 1
 576 00ca 264B     		ldr	r3, .L15+80
 577 00cc 1B78     		ldrb	r3, [r3]
 578 00ce DBB2     		uxtb	r3, r3
 579 00d0 03F00103 		and	r3, r3, #1
 580 00d4 002B     		cmp	r3, #0
 581 00d6 F8D1     		bne	.L11
 442:Generated_Source\PSoC5/cyfitter_cfg.c **** 	while(0u != (CY_GET_REG8((void CYXDATA *)CYREG_PHUB_CH2_BASIC_STATUS) & 0x01u)){}
 582              		.loc 1 442 0 is_stmt 1
ARM GAS  C:\Users\JOSHU_~1\AppData\Local\Temp\ccXCFI4o.s 			page 19


 583 00d8 00BF     		nop
 584              	.L12:
 585              		.loc 1 442 0 is_stmt 0 discriminator 1
 586 00da 234B     		ldr	r3, .L15+84
 587 00dc 1B78     		ldrb	r3, [r3]
 588 00de DBB2     		uxtb	r3, r3
 589 00e0 03F00103 		and	r3, r3, #1
 590 00e4 002B     		cmp	r3, #0
 591 00e6 F8D1     		bne	.L12
 443:Generated_Source\PSoC5/cyfitter_cfg.c **** 	while(0u != (CY_GET_REG8((void CYXDATA *)CYREG_PHUB_CH5_BASIC_STATUS) & 0x01u)){}
 592              		.loc 1 443 0 is_stmt 1
 593 00e8 00BF     		nop
 594              	.L13:
 595              		.loc 1 443 0 is_stmt 0 discriminator 1
 596 00ea 204B     		ldr	r3, .L15+88
 597 00ec 1B78     		ldrb	r3, [r3]
 598 00ee DBB2     		uxtb	r3, r3
 599 00f0 03F00103 		and	r3, r3, #1
 600 00f4 002B     		cmp	r3, #0
 601 00f6 F8D1     		bne	.L13
 444:Generated_Source\PSoC5/cyfitter_cfg.c **** 	while(0u != (CY_GET_REG8((void CYXDATA *)CYREG_PHUB_CH6_BASIC_STATUS) & 0x01u)){}
 602              		.loc 1 444 0 is_stmt 1
 603 00f8 00BF     		nop
 604              	.L14:
 605              		.loc 1 444 0 is_stmt 0 discriminator 1
 606 00fa 1D4B     		ldr	r3, .L15+92
 607 00fc 1B78     		ldrb	r3, [r3]
 608 00fe DBB2     		uxtb	r3, r3
 609 0100 03F00103 		and	r3, r3, #1
 610 0104 002B     		cmp	r3, #0
 611 0106 F8D1     		bne	.L14
 445:Generated_Source\PSoC5/cyfitter_cfg.c **** 
 446:Generated_Source\PSoC5/cyfitter_cfg.c **** 
 447:Generated_Source\PSoC5/cyfitter_cfg.c **** }
 612              		.loc 1 447 0 is_stmt 1
 613 0108 00BF     		nop
 614 010a 0C37     		adds	r7, r7, #12
 615              		.cfi_def_cfa_offset 4
 616 010c BD46     		mov	sp, r7
 617              		.cfi_def_cfa_register 13
 618              		@ sp needed
 619 010e 80BC     		pop	{r7}
 620              		.cfi_restore 7
 621              		.cfi_def_cfa_offset 0
 622 0110 7047     		bx	lr
 623              	.L16:
 624 0112 00BF     		.align	2
 625              	.L15:
 626 0114 00000000 		.word	DMA_ZERO_VAL.4981
 627 0118 00760040 		.word	1073772032
 628 011c 10700040 		.word	1073770512
 629 0120 19700040 		.word	1073770521
 630 0124 00780040 		.word	1073772544
 631 0128 02780040 		.word	1073772546
 632 012c 03780040 		.word	1073772547
 633 0130 04780040 		.word	1073772548
 634 0134 28000000 		.word	CFG_TD_LIST0.4982
ARM GAS  C:\Users\JOSHU_~1\AppData\Local\Temp\ccXCFI4o.s 			page 20


 635 0138 06780040 		.word	1073772550
 636 013c 04760040 		.word	1073772036
 637 0140 06760040 		.word	1073772038
 638 0144 29700040 		.word	1073770537
 639 0148 39700040 		.word	1073770553
 640 014c 69700040 		.word	1073770601
 641 0150 79700040 		.word	1073770617
 642 0154 14700040 		.word	1073770516
 643 0158 0C780040 		.word	1073772556
 644 015c 00000000 		.word	CFG_TD_ADDR0.4983
 645 0160 18700040 		.word	1073770520
 646 0164 28700040 		.word	1073770536
 647 0168 38700040 		.word	1073770552
 648 016c 68700040 		.word	1073770600
 649 0170 78700040 		.word	1073770616
 650              		.cfi_endproc
 651              	.LFE4:
 652              		.size	cfg_dma_init, .-cfg_dma_init
 653              		.section	.text.ClockSetup,"ax",%progbits
 654              		.align	2
 655              		.thumb
 656              		.thumb_func
 657              		.type	ClockSetup, %function
 658              	ClockSetup:
 659              	.LFB5:
 448:Generated_Source\PSoC5/cyfitter_cfg.c **** /*******************************************************************************
 449:Generated_Source\PSoC5/cyfitter_cfg.c **** * Function Name: ClockSetup
 450:Generated_Source\PSoC5/cyfitter_cfg.c **** ********************************************************************************
 451:Generated_Source\PSoC5/cyfitter_cfg.c **** *
 452:Generated_Source\PSoC5/cyfitter_cfg.c **** * Summary:
 453:Generated_Source\PSoC5/cyfitter_cfg.c **** *  Performs the initialization of all of the clocks in the device based on the
 454:Generated_Source\PSoC5/cyfitter_cfg.c **** *  settings in the Clock tab of the DWR.  This includes enabling the requested
 455:Generated_Source\PSoC5/cyfitter_cfg.c **** *  clocks and setting the necessary dividers to produce the desired frequency. 
 456:Generated_Source\PSoC5/cyfitter_cfg.c **** *
 457:Generated_Source\PSoC5/cyfitter_cfg.c **** * Parameters:
 458:Generated_Source\PSoC5/cyfitter_cfg.c **** *  void
 459:Generated_Source\PSoC5/cyfitter_cfg.c **** *
 460:Generated_Source\PSoC5/cyfitter_cfg.c **** * Return:
 461:Generated_Source\PSoC5/cyfitter_cfg.c **** *  void
 462:Generated_Source\PSoC5/cyfitter_cfg.c **** *
 463:Generated_Source\PSoC5/cyfitter_cfg.c **** *******************************************************************************/
 464:Generated_Source\PSoC5/cyfitter_cfg.c **** static void ClockSetup(void);
 465:Generated_Source\PSoC5/cyfitter_cfg.c **** static void ClockSetup(void)
 466:Generated_Source\PSoC5/cyfitter_cfg.c **** {
 660              		.loc 1 466 0
 661              		.cfi_startproc
 662              		@ args = 0, pretend = 0, frame = 8
 663              		@ frame_needed = 1, uses_anonymous_args = 0
 664 0000 80B5     		push	{r7, lr}
 665              		.cfi_def_cfa_offset 8
 666              		.cfi_offset 7, -8
 667              		.cfi_offset 14, -4
 668 0002 82B0     		sub	sp, sp, #8
 669              		.cfi_def_cfa_offset 16
 670 0004 00AF     		add	r7, sp, #0
 671              		.cfi_def_cfa_register 7
 467:Generated_Source\PSoC5/cyfitter_cfg.c **** 	uint32 timeout;
ARM GAS  C:\Users\JOSHU_~1\AppData\Local\Temp\ccXCFI4o.s 			page 21


 468:Generated_Source\PSoC5/cyfitter_cfg.c **** 	uint8 pllLock;
 469:Generated_Source\PSoC5/cyfitter_cfg.c **** 
 470:Generated_Source\PSoC5/cyfitter_cfg.c **** 
 471:Generated_Source\PSoC5/cyfitter_cfg.c **** 	/* Configure Digital Clocks based on settings from Clock DWR */
 472:Generated_Source\PSoC5/cyfitter_cfg.c **** 	CY_SET_XTND_REG16((void CYFAR *)(CYREG_CLKDIST_DCFG0_CFG0), 0x0031u);
 672              		.loc 1 472 0
 673 0006 334B     		ldr	r3, .L22
 674 0008 3122     		movs	r2, #49
 675 000a 1A80     		strh	r2, [r3]	@ movhi
 473:Generated_Source\PSoC5/cyfitter_cfg.c **** 	CY_SET_XTND_REG8((void CYFAR *)(CYREG_CLKDIST_DCFG0_CFG0 + 0x2u), 0x18u);
 676              		.loc 1 473 0
 677 000c 324B     		ldr	r3, .L22+4
 678 000e 1822     		movs	r2, #24
 679 0010 1A70     		strb	r2, [r3]
 474:Generated_Source\PSoC5/cyfitter_cfg.c **** 	CY_SET_XTND_REG16((void CYFAR *)(CYREG_CLKDIST_DCFG1_CFG0), 0x0033u);
 680              		.loc 1 474 0
 681 0012 324B     		ldr	r3, .L22+8
 682 0014 3322     		movs	r2, #51
 683 0016 1A80     		strh	r2, [r3]	@ movhi
 475:Generated_Source\PSoC5/cyfitter_cfg.c **** 	CY_SET_XTND_REG8((void CYFAR *)(CYREG_CLKDIST_DCFG1_CFG0 + 0x2u), 0x18u);
 684              		.loc 1 475 0
 685 0018 314B     		ldr	r3, .L22+12
 686 001a 1822     		movs	r2, #24
 687 001c 1A70     		strb	r2, [r3]
 476:Generated_Source\PSoC5/cyfitter_cfg.c **** 
 477:Generated_Source\PSoC5/cyfitter_cfg.c **** 	/* Configure ILO based on settings from Clock DWR */
 478:Generated_Source\PSoC5/cyfitter_cfg.c **** 	CY_SET_XTND_REG8((void CYFAR *)(CYREG_SLOWCLK_ILO_CR0), 0x02u);
 688              		.loc 1 478 0
 689 001e 314B     		ldr	r3, .L22+16
 690 0020 0222     		movs	r2, #2
 691 0022 1A70     		strb	r2, [r3]
 479:Generated_Source\PSoC5/cyfitter_cfg.c **** 	CY_SET_XTND_REG8((void CYFAR *)(CYREG_CLKDIST_CR), 0x08u);
 692              		.loc 1 479 0
 693 0024 4FF04023 		mov	r3, #1073758208
 694 0028 0822     		movs	r2, #8
 695 002a 1A70     		strb	r2, [r3]
 480:Generated_Source\PSoC5/cyfitter_cfg.c **** 
 481:Generated_Source\PSoC5/cyfitter_cfg.c **** 	/* Configure IMO based on settings from Clock DWR */
 482:Generated_Source\PSoC5/cyfitter_cfg.c **** 	CY_SET_XTND_REG8((void CYFAR *)(CYREG_FASTCLK_IMO_CR), 0x03u);
 696              		.loc 1 482 0
 697 002c 2E4B     		ldr	r3, .L22+20
 698 002e 0322     		movs	r2, #3
 699 0030 1A70     		strb	r2, [r3]
 483:Generated_Source\PSoC5/cyfitter_cfg.c **** 	CY_SET_XTND_REG8((void CYFAR *)(CYREG_IMO_TR1), (CY_GET_XTND_REG8((void CYFAR *)CYREG_FLSHID_CUST_
 700              		.loc 1 483 0
 701 0032 2E4B     		ldr	r3, .L22+24
 702 0034 2E4A     		ldr	r2, .L22+28
 703 0036 1278     		ldrb	r2, [r2]
 704 0038 D2B2     		uxtb	r2, r2
 705 003a 1A70     		strb	r2, [r3]
 484:Generated_Source\PSoC5/cyfitter_cfg.c **** 
 485:Generated_Source\PSoC5/cyfitter_cfg.c **** 	/* Configure PLL based on settings from Clock DWR */
 486:Generated_Source\PSoC5/cyfitter_cfg.c **** 	CY_SET_XTND_REG16((void CYFAR *)(CYREG_FASTCLK_PLL_P), 0x0008u);
 706              		.loc 1 486 0
 707 003c 2D4B     		ldr	r3, .L22+32
 708 003e 0822     		movs	r2, #8
 709 0040 1A80     		strh	r2, [r3]	@ movhi
ARM GAS  C:\Users\JOSHU_~1\AppData\Local\Temp\ccXCFI4o.s 			page 22


 487:Generated_Source\PSoC5/cyfitter_cfg.c **** 	CY_SET_XTND_REG16((void CYFAR *)(CYREG_FASTCLK_PLL_CFG0), 0x1251u);
 710              		.loc 1 487 0
 711 0042 2D4B     		ldr	r3, .L22+36
 712 0044 41F25122 		movw	r2, #4689
 713 0048 1A80     		strh	r2, [r3]	@ movhi
 488:Generated_Source\PSoC5/cyfitter_cfg.c **** 	/* Wait up to 250us for the PLL to lock */
 489:Generated_Source\PSoC5/cyfitter_cfg.c **** 	pllLock = 0u;
 714              		.loc 1 489 0
 715 004a 0023     		movs	r3, #0
 716 004c FB70     		strb	r3, [r7, #3]
 490:Generated_Source\PSoC5/cyfitter_cfg.c **** 	for (timeout = 250u / 10u; (timeout > 0u) && (pllLock != 0x03u); timeout--)
 717              		.loc 1 490 0
 718 004e 1923     		movs	r3, #25
 719 0050 7B60     		str	r3, [r7, #4]
 720 0052 14E0     		b	.L18
 721              	.L20:
 491:Generated_Source\PSoC5/cyfitter_cfg.c **** 	{ 
 492:Generated_Source\PSoC5/cyfitter_cfg.c **** 		pllLock = 0x03u & ((uint8)((uint8)pllLock << 1) | ((CY_GET_XTND_REG8((void CYFAR *)CYREG_FASTCLK_
 722              		.loc 1 492 0 discriminator 4
 723 0054 FB78     		ldrb	r3, [r7, #3]
 724 0056 5B00     		lsls	r3, r3, #1
 725 0058 DAB2     		uxtb	r2, r3
 726 005a 284B     		ldr	r3, .L22+40
 727 005c 1B78     		ldrb	r3, [r3]
 728 005e DBB2     		uxtb	r3, r3
 729 0060 03F00103 		and	r3, r3, #1
 730 0064 DBB2     		uxtb	r3, r3
 731 0066 1343     		orrs	r3, r3, r2
 732 0068 DBB2     		uxtb	r3, r3
 733 006a 03F00303 		and	r3, r3, #3
 734 006e FB70     		strb	r3, [r7, #3]
 493:Generated_Source\PSoC5/cyfitter_cfg.c **** 		CyDelayCycles(10u * 48u); /* Delay 10us based on 48MHz clock */
 735              		.loc 1 493 0 discriminator 4
 736 0070 4FF4F070 		mov	r0, #480
 737 0074 FFF7FEFF 		bl	CyDelayCycles
 490:Generated_Source\PSoC5/cyfitter_cfg.c **** 	for (timeout = 250u / 10u; (timeout > 0u) && (pllLock != 0x03u); timeout--)
 738              		.loc 1 490 0 discriminator 4
 739 0078 7B68     		ldr	r3, [r7, #4]
 740 007a 013B     		subs	r3, r3, #1
 741 007c 7B60     		str	r3, [r7, #4]
 742              	.L18:
 490:Generated_Source\PSoC5/cyfitter_cfg.c **** 	for (timeout = 250u / 10u; (timeout > 0u) && (pllLock != 0x03u); timeout--)
 743              		.loc 1 490 0 is_stmt 0 discriminator 1
 744 007e 7B68     		ldr	r3, [r7, #4]
 745 0080 002B     		cmp	r3, #0
 746 0082 02D0     		beq	.L19
 490:Generated_Source\PSoC5/cyfitter_cfg.c **** 	for (timeout = 250u / 10u; (timeout > 0u) && (pllLock != 0x03u); timeout--)
 747              		.loc 1 490 0 discriminator 3
 748 0084 FB78     		ldrb	r3, [r7, #3]	@ zero_extendqisi2
 749 0086 032B     		cmp	r3, #3
 750 0088 E4D1     		bne	.L20
 751              	.L19:
 494:Generated_Source\PSoC5/cyfitter_cfg.c **** 	}
 495:Generated_Source\PSoC5/cyfitter_cfg.c **** 	/* If we ran out of time the PLL didn't lock so go to the error function */
 496:Generated_Source\PSoC5/cyfitter_cfg.c **** 	if (timeout == 0u)
 752              		.loc 1 496 0 is_stmt 1
 753 008a 7B68     		ldr	r3, [r7, #4]
ARM GAS  C:\Users\JOSHU_~1\AppData\Local\Temp\ccXCFI4o.s 			page 23


 754 008c 002B     		cmp	r3, #0
 755 008e 02D1     		bne	.L21
 497:Generated_Source\PSoC5/cyfitter_cfg.c **** 	{
 498:Generated_Source\PSoC5/cyfitter_cfg.c **** 		CyClockStartupError(CYCLOCKSTART_PLL_ERROR);
 756              		.loc 1 498 0
 757 0090 0320     		movs	r0, #3
 758 0092 FFF7FEFF 		bl	CyClockStartupError
 759              	.L21:
 499:Generated_Source\PSoC5/cyfitter_cfg.c **** 	}
 500:Generated_Source\PSoC5/cyfitter_cfg.c **** 
 501:Generated_Source\PSoC5/cyfitter_cfg.c **** 	/* Configure Bus/Master Clock based on settings from Clock DWR */
 502:Generated_Source\PSoC5/cyfitter_cfg.c **** 	CY_SET_XTND_REG16((void CYFAR *)(CYREG_CLKDIST_MSTR0), 0x0100u);
 760              		.loc 1 502 0
 761 0096 1A4B     		ldr	r3, .L22+44
 762 0098 4FF48072 		mov	r2, #256
 763 009c 1A80     		strh	r2, [r3]	@ movhi
 503:Generated_Source\PSoC5/cyfitter_cfg.c **** 	CY_SET_XTND_REG8((void CYFAR *)(CYREG_CLKDIST_MSTR0), 0x07u);
 764              		.loc 1 503 0
 765 009e 184B     		ldr	r3, .L22+44
 766 00a0 0722     		movs	r2, #7
 767 00a2 1A70     		strb	r2, [r3]
 504:Generated_Source\PSoC5/cyfitter_cfg.c **** 	CY_SET_XTND_REG8((void CYFAR *)(CYREG_CLKDIST_BCFG0), 0x00u);
 768              		.loc 1 504 0
 769 00a4 174B     		ldr	r3, .L22+48
 770 00a6 0022     		movs	r2, #0
 771 00a8 1A70     		strb	r2, [r3]
 505:Generated_Source\PSoC5/cyfitter_cfg.c **** 	CY_SET_XTND_REG8((void CYFAR *)(CYREG_CLKDIST_BCFG2), 0x48u);
 772              		.loc 1 505 0
 773 00aa 174B     		ldr	r3, .L22+52
 774 00ac 4822     		movs	r2, #72
 775 00ae 1A70     		strb	r2, [r3]
 506:Generated_Source\PSoC5/cyfitter_cfg.c **** 	CY_SET_XTND_REG8((void CYFAR *)(CYREG_CLKDIST_MSTR0), 0x00u);
 776              		.loc 1 506 0
 777 00b0 134B     		ldr	r3, .L22+44
 778 00b2 0022     		movs	r2, #0
 779 00b4 1A70     		strb	r2, [r3]
 507:Generated_Source\PSoC5/cyfitter_cfg.c **** 	CY_SET_XTND_REG8((void CYFAR *)(CYREG_CLKDIST_LD), 0x02u);
 780              		.loc 1 507 0
 781 00b6 154B     		ldr	r3, .L22+56
 782 00b8 0222     		movs	r2, #2
 783 00ba 1A70     		strb	r2, [r3]
 508:Generated_Source\PSoC5/cyfitter_cfg.c **** 
 509:Generated_Source\PSoC5/cyfitter_cfg.c **** 	CY_SET_XTND_REG8((void CYFAR *)(CYREG_PM_ACT_CFG2), ((CY_GET_XTND_REG8((void CYFAR *)CYREG_PM_ACT_
 784              		.loc 1 509 0
 785 00bc 144A     		ldr	r2, .L22+60
 786 00be 144B     		ldr	r3, .L22+60
 787 00c0 1B78     		ldrb	r3, [r3]
 788 00c2 DBB2     		uxtb	r3, r3
 789 00c4 43F00303 		orr	r3, r3, #3
 790 00c8 DBB2     		uxtb	r3, r3
 791 00ca 1370     		strb	r3, [r2]
 510:Generated_Source\PSoC5/cyfitter_cfg.c **** }
 792              		.loc 1 510 0
 793 00cc 00BF     		nop
 794 00ce 0837     		adds	r7, r7, #8
 795              		.cfi_def_cfa_offset 8
 796 00d0 BD46     		mov	sp, r7
ARM GAS  C:\Users\JOSHU_~1\AppData\Local\Temp\ccXCFI4o.s 			page 24


 797              		.cfi_def_cfa_register 13
 798              		@ sp needed
 799 00d2 80BD     		pop	{r7, pc}
 800              	.L23:
 801              		.align	2
 802              	.L22:
 803 00d4 80400040 		.word	1073758336
 804 00d8 82400040 		.word	1073758338
 805 00dc 84400040 		.word	1073758340
 806 00e0 86400040 		.word	1073758342
 807 00e4 00430040 		.word	1073758976
 808 00e8 00420040 		.word	1073758720
 809 00ec A1460040 		.word	1073759905
 810 00f0 08010049 		.word	1224737032
 811 00f4 22420040 		.word	1073758754
 812 00f8 20420040 		.word	1073758752
 813 00fc 25420040 		.word	1073758757
 814 0100 04400040 		.word	1073758212
 815 0104 06400040 		.word	1073758214
 816 0108 08400040 		.word	1073758216
 817 010c 01400040 		.word	1073758209
 818 0110 A2430040 		.word	1073759138
 819              		.cfi_endproc
 820              	.LFE5:
 821              		.size	ClockSetup, .-ClockSetup
 822              		.section	.text.AnalogSetDefault,"ax",%progbits
 823              		.align	2
 824              		.thumb
 825              		.thumb_func
 826              		.type	AnalogSetDefault, %function
 827              	AnalogSetDefault:
 828              	.LFB6:
 511:Generated_Source\PSoC5/cyfitter_cfg.c **** 
 512:Generated_Source\PSoC5/cyfitter_cfg.c **** 
 513:Generated_Source\PSoC5/cyfitter_cfg.c **** /* Analog API Functions */
 514:Generated_Source\PSoC5/cyfitter_cfg.c **** 
 515:Generated_Source\PSoC5/cyfitter_cfg.c **** 
 516:Generated_Source\PSoC5/cyfitter_cfg.c **** /*******************************************************************************
 517:Generated_Source\PSoC5/cyfitter_cfg.c **** * Function Name: AnalogSetDefault
 518:Generated_Source\PSoC5/cyfitter_cfg.c **** ********************************************************************************
 519:Generated_Source\PSoC5/cyfitter_cfg.c **** *
 520:Generated_Source\PSoC5/cyfitter_cfg.c **** * Summary:
 521:Generated_Source\PSoC5/cyfitter_cfg.c **** *  Sets up the analog portions of the chip to default values based on chip
 522:Generated_Source\PSoC5/cyfitter_cfg.c **** *  configuration options from the project.
 523:Generated_Source\PSoC5/cyfitter_cfg.c **** *
 524:Generated_Source\PSoC5/cyfitter_cfg.c **** * Parameters:
 525:Generated_Source\PSoC5/cyfitter_cfg.c **** *  void
 526:Generated_Source\PSoC5/cyfitter_cfg.c **** *
 527:Generated_Source\PSoC5/cyfitter_cfg.c **** * Return:
 528:Generated_Source\PSoC5/cyfitter_cfg.c **** *  void
 529:Generated_Source\PSoC5/cyfitter_cfg.c **** *
 530:Generated_Source\PSoC5/cyfitter_cfg.c **** *******************************************************************************/
 531:Generated_Source\PSoC5/cyfitter_cfg.c **** static void AnalogSetDefault(void);
 532:Generated_Source\PSoC5/cyfitter_cfg.c **** static void AnalogSetDefault(void)
 533:Generated_Source\PSoC5/cyfitter_cfg.c **** {
 829              		.loc 1 533 0
 830              		.cfi_startproc
ARM GAS  C:\Users\JOSHU_~1\AppData\Local\Temp\ccXCFI4o.s 			page 25


 831              		@ args = 0, pretend = 0, frame = 8
 832              		@ frame_needed = 1, uses_anonymous_args = 0
 833              		@ link register save eliminated.
 834 0000 80B4     		push	{r7}
 835              		.cfi_def_cfa_offset 4
 836              		.cfi_offset 7, -4
 837 0002 83B0     		sub	sp, sp, #12
 838              		.cfi_def_cfa_offset 16
 839 0004 00AF     		add	r7, sp, #0
 840              		.cfi_def_cfa_register 7
 534:Generated_Source\PSoC5/cyfitter_cfg.c **** 	uint8 bg_xover_inl_trim = CY_GET_XTND_REG8((void CYFAR *)(CYREG_FLSHID_MFG_CFG_BG_XOVER_INL_TRIM +
 841              		.loc 1 534 0
 842 0006 0B4B     		ldr	r3, .L25
 843 0008 1B78     		ldrb	r3, [r3]
 844 000a FB71     		strb	r3, [r7, #7]
 535:Generated_Source\PSoC5/cyfitter_cfg.c **** 	CY_SET_XTND_REG8((void CYFAR *)(CYREG_BG_DFT0), (bg_xover_inl_trim & 0x07u));
 845              		.loc 1 535 0
 846 000c 0A4A     		ldr	r2, .L25+4
 847 000e FB79     		ldrb	r3, [r7, #7]
 848 0010 03F00703 		and	r3, r3, #7
 849 0014 DBB2     		uxtb	r3, r3
 850 0016 1370     		strb	r3, [r2]
 536:Generated_Source\PSoC5/cyfitter_cfg.c **** 	CY_SET_XTND_REG8((void CYFAR *)(CYREG_BG_DFT1), ((bg_xover_inl_trim >> 4) & 0x0Fu));
 851              		.loc 1 536 0
 852 0018 084A     		ldr	r2, .L25+8
 853 001a FB79     		ldrb	r3, [r7, #7]	@ zero_extendqisi2
 854 001c 1B09     		lsrs	r3, r3, #4
 855 001e DBB2     		uxtb	r3, r3
 856 0020 1370     		strb	r3, [r2]
 537:Generated_Source\PSoC5/cyfitter_cfg.c **** 	CY_SET_XTND_REG8((void CYFAR *)CYREG_PUMP_CR0, 0x44u);
 857              		.loc 1 537 0
 858 0022 074B     		ldr	r3, .L25+12
 859 0024 4422     		movs	r2, #68
 860 0026 1A70     		strb	r2, [r3]
 538:Generated_Source\PSoC5/cyfitter_cfg.c **** }
 861              		.loc 1 538 0
 862 0028 00BF     		nop
 863 002a 0C37     		adds	r7, r7, #12
 864              		.cfi_def_cfa_offset 4
 865 002c BD46     		mov	sp, r7
 866              		.cfi_def_cfa_register 13
 867              		@ sp needed
 868 002e 80BC     		pop	{r7}
 869              		.cfi_restore 7
 870              		.cfi_def_cfa_offset 0
 871 0030 7047     		bx	lr
 872              	.L26:
 873 0032 00BF     		.align	2
 874              	.L25:
 875 0034 CF010049 		.word	1224737231
 876 0038 6E580040 		.word	1073764462
 877 003c 6F580040 		.word	1073764463
 878 0040 76580040 		.word	1073764470
 879              		.cfi_endproc
 880              	.LFE6:
 881              		.size	AnalogSetDefault, .-AnalogSetDefault
 882              		.section	.text.SetAnalogRoutingPumps,"ax",%progbits
ARM GAS  C:\Users\JOSHU_~1\AppData\Local\Temp\ccXCFI4o.s 			page 26


 883              		.align	2
 884              		.global	SetAnalogRoutingPumps
 885              		.thumb
 886              		.thumb_func
 887              		.type	SetAnalogRoutingPumps, %function
 888              	SetAnalogRoutingPumps:
 889              	.LFB7:
 539:Generated_Source\PSoC5/cyfitter_cfg.c **** 
 540:Generated_Source\PSoC5/cyfitter_cfg.c **** 
 541:Generated_Source\PSoC5/cyfitter_cfg.c **** /*******************************************************************************
 542:Generated_Source\PSoC5/cyfitter_cfg.c **** * Function Name: SetAnalogRoutingPumps
 543:Generated_Source\PSoC5/cyfitter_cfg.c **** ********************************************************************************
 544:Generated_Source\PSoC5/cyfitter_cfg.c **** *
 545:Generated_Source\PSoC5/cyfitter_cfg.c **** * Summary:
 546:Generated_Source\PSoC5/cyfitter_cfg.c **** * Enables or disables the analog pumps feeding analog routing switches.
 547:Generated_Source\PSoC5/cyfitter_cfg.c **** * Intended to be called at startup, based on the Vdda system configuration;
 548:Generated_Source\PSoC5/cyfitter_cfg.c **** * may be called during operation when the user informs us that the Vdda voltage
 549:Generated_Source\PSoC5/cyfitter_cfg.c **** * crossed the pump threshold.
 550:Generated_Source\PSoC5/cyfitter_cfg.c **** *
 551:Generated_Source\PSoC5/cyfitter_cfg.c **** * Parameters:
 552:Generated_Source\PSoC5/cyfitter_cfg.c **** *  enabled - 1 to enable the pumps, 0 to disable the pumps
 553:Generated_Source\PSoC5/cyfitter_cfg.c **** *
 554:Generated_Source\PSoC5/cyfitter_cfg.c **** * Return:
 555:Generated_Source\PSoC5/cyfitter_cfg.c **** *  void
 556:Generated_Source\PSoC5/cyfitter_cfg.c **** *
 557:Generated_Source\PSoC5/cyfitter_cfg.c **** *******************************************************************************/
 558:Generated_Source\PSoC5/cyfitter_cfg.c **** void SetAnalogRoutingPumps(uint8 enabled)
 559:Generated_Source\PSoC5/cyfitter_cfg.c **** {
 890              		.loc 1 559 0
 891              		.cfi_startproc
 892              		@ args = 0, pretend = 0, frame = 16
 893              		@ frame_needed = 1, uses_anonymous_args = 0
 894              		@ link register save eliminated.
 895 0000 80B4     		push	{r7}
 896              		.cfi_def_cfa_offset 4
 897              		.cfi_offset 7, -4
 898 0002 85B0     		sub	sp, sp, #20
 899              		.cfi_def_cfa_offset 24
 900 0004 00AF     		add	r7, sp, #0
 901              		.cfi_def_cfa_register 7
 902 0006 0346     		mov	r3, r0
 903 0008 FB71     		strb	r3, [r7, #7]
 560:Generated_Source\PSoC5/cyfitter_cfg.c **** 	uint8 regValue = CY_GET_XTND_REG8((void CYFAR *)CYREG_PUMP_CR0);
 904              		.loc 1 560 0
 905 000a 064B     		ldr	r3, .L30
 906 000c 1B78     		ldrb	r3, [r3]
 907 000e FB73     		strb	r3, [r7, #15]
 561:Generated_Source\PSoC5/cyfitter_cfg.c **** 	if (enabled != 0u)
 908              		.loc 1 561 0
 909 0010 FB79     		ldrb	r3, [r7, #7]	@ zero_extendqisi2
 910 0012 002B     		cmp	r3, #0
 562:Generated_Source\PSoC5/cyfitter_cfg.c **** 	{
 563:Generated_Source\PSoC5/cyfitter_cfg.c **** 		regValue |= 0x00u;
 564:Generated_Source\PSoC5/cyfitter_cfg.c **** 	}
 565:Generated_Source\PSoC5/cyfitter_cfg.c **** 	else
 566:Generated_Source\PSoC5/cyfitter_cfg.c **** 	{
 567:Generated_Source\PSoC5/cyfitter_cfg.c **** 		regValue &= (uint8)~0x00u;
ARM GAS  C:\Users\JOSHU_~1\AppData\Local\Temp\ccXCFI4o.s 			page 27


 568:Generated_Source\PSoC5/cyfitter_cfg.c **** 	}
 569:Generated_Source\PSoC5/cyfitter_cfg.c **** 	CY_SET_XTND_REG8((void CYFAR *)CYREG_PUMP_CR0, regValue);
 911              		.loc 1 569 0
 912 0014 034A     		ldr	r2, .L30
 913 0016 FB7B     		ldrb	r3, [r7, #15]
 914 0018 1370     		strb	r3, [r2]
 570:Generated_Source\PSoC5/cyfitter_cfg.c **** }
 915              		.loc 1 570 0
 916 001a 00BF     		nop
 917 001c 1437     		adds	r7, r7, #20
 918              		.cfi_def_cfa_offset 4
 919 001e BD46     		mov	sp, r7
 920              		.cfi_def_cfa_register 13
 921              		@ sp needed
 922 0020 80BC     		pop	{r7}
 923              		.cfi_restore 7
 924              		.cfi_def_cfa_offset 0
 925 0022 7047     		bx	lr
 926              	.L31:
 927              		.align	2
 928              	.L30:
 929 0024 76580040 		.word	1073764470
 930              		.cfi_endproc
 931              	.LFE7:
 932              		.size	SetAnalogRoutingPumps, .-SetAnalogRoutingPumps
 933              		.section	.text.cyfitter_cfg,"ax",%progbits
 934              		.align	2
 935              		.global	cyfitter_cfg
 936              		.thumb
 937              		.thumb_func
 938              		.type	cyfitter_cfg, %function
 939              	cyfitter_cfg:
 940              	.LFB8:
 571:Generated_Source\PSoC5/cyfitter_cfg.c **** 
 572:Generated_Source\PSoC5/cyfitter_cfg.c **** 
 573:Generated_Source\PSoC5/cyfitter_cfg.c **** 
 574:Generated_Source\PSoC5/cyfitter_cfg.c **** 
 575:Generated_Source\PSoC5/cyfitter_cfg.c **** /*******************************************************************************
 576:Generated_Source\PSoC5/cyfitter_cfg.c **** * Function Name: cyfitter_cfg
 577:Generated_Source\PSoC5/cyfitter_cfg.c **** ********************************************************************************
 578:Generated_Source\PSoC5/cyfitter_cfg.c **** * Summary:
 579:Generated_Source\PSoC5/cyfitter_cfg.c **** *  This function is called by the start-up code for the selected device. It
 580:Generated_Source\PSoC5/cyfitter_cfg.c **** *  performs all of the necessary device configuration based on the design
 581:Generated_Source\PSoC5/cyfitter_cfg.c **** *  settings.  This includes settings from the Design Wide Resources (DWR) such
 582:Generated_Source\PSoC5/cyfitter_cfg.c **** *  as Clocks and Pins as well as any component configuration that is necessary.
 583:Generated_Source\PSoC5/cyfitter_cfg.c **** *
 584:Generated_Source\PSoC5/cyfitter_cfg.c **** * Parameters:
 585:Generated_Source\PSoC5/cyfitter_cfg.c **** *   void
 586:Generated_Source\PSoC5/cyfitter_cfg.c **** *
 587:Generated_Source\PSoC5/cyfitter_cfg.c **** * Return:
 588:Generated_Source\PSoC5/cyfitter_cfg.c **** *   void
 589:Generated_Source\PSoC5/cyfitter_cfg.c **** *
 590:Generated_Source\PSoC5/cyfitter_cfg.c **** *******************************************************************************/
 591:Generated_Source\PSoC5/cyfitter_cfg.c **** 
 592:Generated_Source\PSoC5/cyfitter_cfg.c **** void cyfitter_cfg(void)
 593:Generated_Source\PSoC5/cyfitter_cfg.c **** {
 941              		.loc 1 593 0
ARM GAS  C:\Users\JOSHU_~1\AppData\Local\Temp\ccXCFI4o.s 			page 28


 942              		.cfi_startproc
 943              		@ args = 0, pretend = 0, frame = 0
 944              		@ frame_needed = 1, uses_anonymous_args = 0
 945 0000 80B5     		push	{r7, lr}
 946              		.cfi_def_cfa_offset 8
 947              		.cfi_offset 7, -8
 948              		.cfi_offset 14, -4
 949 0002 00AF     		add	r7, sp, #0
 950              		.cfi_def_cfa_register 7
 594:Generated_Source\PSoC5/cyfitter_cfg.c **** #ifdef CYGlobalIntDisable
 595:Generated_Source\PSoC5/cyfitter_cfg.c **** 	/* Disable interrupts by default. Let user enable if/when they want. */
 596:Generated_Source\PSoC5/cyfitter_cfg.c **** 	CYGlobalIntDisable
 951              		.loc 1 596 0
 952              		.syntax unified
 953              	@ 596 "Generated_Source\PSoC5\cyfitter_cfg.c" 1
 954 0004 72B6     		CPSID   i
 955              	@ 0 "" 2
 597:Generated_Source\PSoC5/cyfitter_cfg.c **** #endif
 598:Generated_Source\PSoC5/cyfitter_cfg.c **** 
 599:Generated_Source\PSoC5/cyfitter_cfg.c **** 	/* Enable/Disable Debug functionality based on settings from System DWR */
 600:Generated_Source\PSoC5/cyfitter_cfg.c **** 	CY_SET_XTND_REG8((void CYFAR *)CYREG_MLOGIC_DEBUG, (CY_GET_XTND_REG8((void CYFAR *)CYREG_MLOGIC_DE
 956              		.loc 1 600 0
 957              		.thumb
 958              		.syntax unified
 959 0006 2A4A     		ldr	r2, .L33
 960 0008 294B     		ldr	r3, .L33
 961 000a 1B78     		ldrb	r3, [r3]
 962 000c DBB2     		uxtb	r3, r3
 963 000e 43F00403 		orr	r3, r3, #4
 964 0012 DBB2     		uxtb	r3, r3
 965 0014 1370     		strb	r3, [r2]
 601:Generated_Source\PSoC5/cyfitter_cfg.c **** 
 602:Generated_Source\PSoC5/cyfitter_cfg.c **** 	{
 603:Generated_Source\PSoC5/cyfitter_cfg.c **** 		cfg_dma_init();
 966              		.loc 1 603 0
 967 0016 FFF7FEFF 		bl	cfg_dma_init
 604:Generated_Source\PSoC5/cyfitter_cfg.c **** 
 605:Generated_Source\PSoC5/cyfitter_cfg.c **** 		/* Enable digital routing */
 606:Generated_Source\PSoC5/cyfitter_cfg.c **** 		CY_SET_XTND_REG8((void CYFAR *)CYREG_BCTL0_BANK_CTL, CY_GET_XTND_REG8((void CYFAR *)CYREG_BCTL0_B
 968              		.loc 1 606 0
 969 001a 264A     		ldr	r2, .L33+4
 970 001c 254B     		ldr	r3, .L33+4
 971 001e 1B78     		ldrb	r3, [r3]
 972 0020 DBB2     		uxtb	r3, r3
 973 0022 43F00203 		orr	r3, r3, #2
 974 0026 DBB2     		uxtb	r3, r3
 975 0028 1370     		strb	r3, [r2]
 607:Generated_Source\PSoC5/cyfitter_cfg.c **** 		CY_SET_XTND_REG8((void CYFAR *)CYREG_BCTL1_BANK_CTL, CY_GET_XTND_REG8((void CYFAR *)CYREG_BCTL1_B
 976              		.loc 1 607 0
 977 002a 234A     		ldr	r2, .L33+8
 978 002c 224B     		ldr	r3, .L33+8
 979 002e 1B78     		ldrb	r3, [r3]
 980 0030 DBB2     		uxtb	r3, r3
 981 0032 43F00203 		orr	r3, r3, #2
 982 0036 DBB2     		uxtb	r3, r3
 983 0038 1370     		strb	r3, [r2]
 608:Generated_Source\PSoC5/cyfitter_cfg.c **** 
ARM GAS  C:\Users\JOSHU_~1\AppData\Local\Temp\ccXCFI4o.s 			page 29


 609:Generated_Source\PSoC5/cyfitter_cfg.c **** 		/* Enable UDB array */
 610:Generated_Source\PSoC5/cyfitter_cfg.c **** 		CY_SET_XTND_REG8((void CYFAR *)CYREG_PM_ACT_CFG0, CY_GET_XTND_REG8((void CYFAR *)CYREG_PM_ACT_CFG
 984              		.loc 1 610 0
 985 003a 204A     		ldr	r2, .L33+12
 986 003c 1F4B     		ldr	r3, .L33+12
 987 003e 1B78     		ldrb	r3, [r3]
 988 0040 DBB2     		uxtb	r3, r3
 989 0042 43F04003 		orr	r3, r3, #64
 990 0046 DBB2     		uxtb	r3, r3
 991 0048 1370     		strb	r3, [r2]
 611:Generated_Source\PSoC5/cyfitter_cfg.c **** 		CY_SET_XTND_REG8((void CYFAR *)CYREG_PM_AVAIL_CR2, CY_GET_XTND_REG8((void CYFAR *)CYREG_PM_AVAIL_
 992              		.loc 1 611 0
 993 004a 1D4A     		ldr	r2, .L33+16
 994 004c 1C4B     		ldr	r3, .L33+16
 995 004e 1B78     		ldrb	r3, [r3]
 996 0050 DBB2     		uxtb	r3, r3
 997 0052 43F01003 		orr	r3, r3, #16
 998 0056 DBB2     		uxtb	r3, r3
 999 0058 1370     		strb	r3, [r2]
 612:Generated_Source\PSoC5/cyfitter_cfg.c **** 	}
 613:Generated_Source\PSoC5/cyfitter_cfg.c **** 
 614:Generated_Source\PSoC5/cyfitter_cfg.c **** 
 615:Generated_Source\PSoC5/cyfitter_cfg.c **** 	/* Perform second pass device configuration. These items must be configured in specific order afte
 616:Generated_Source\PSoC5/cyfitter_cfg.c **** 	CYCONFIGCPY((void CYFAR *)(CYREG_PRT12_DR), (const void CYFAR *)(BS_IOPINS0_7_VAL), 10u);
 1000              		.loc 1 616 0
 1001 005a 0A22     		movs	r2, #10
 1002 005c 1949     		ldr	r1, .L33+20
 1003 005e 1A48     		ldr	r0, .L33+24
 1004 0060 FFF7FEFF 		bl	CYCONFIGCPY
 617:Generated_Source\PSoC5/cyfitter_cfg.c **** 	CYCONFIGCPY((void CYFAR *)(CYREG_PRT1_DM0), (const void CYFAR *)(BS_IOPINS0_1_VAL), 8u);
 1005              		.loc 1 617 0
 1006 0064 0822     		movs	r2, #8
 1007 0066 1949     		ldr	r1, .L33+28
 1008 0068 1948     		ldr	r0, .L33+32
 1009 006a FFF7FEFF 		bl	CYCONFIGCPY
 618:Generated_Source\PSoC5/cyfitter_cfg.c **** 	CYCONFIGCPY((void CYFAR *)(CYREG_PRT2_DR), (const void CYFAR *)(BS_IOPINS0_2_VAL), 10u);
 1010              		.loc 1 618 0
 1011 006e 0A22     		movs	r2, #10
 1012 0070 1849     		ldr	r1, .L33+36
 1013 0072 1948     		ldr	r0, .L33+40
 1014 0074 FFF7FEFF 		bl	CYCONFIGCPY
 619:Generated_Source\PSoC5/cyfitter_cfg.c **** 	/* Switch Boost to the precision bandgap reference from its internal reference */
 620:Generated_Source\PSoC5/cyfitter_cfg.c **** 	CY_SET_REG8((void CYXDATA *)CYREG_BOOST_CR2, (CY_GET_REG8((void CYXDATA *)CYREG_BOOST_CR2) | 0x08u
 1015              		.loc 1 620 0
 1016 0078 184A     		ldr	r2, .L33+44
 1017 007a 184B     		ldr	r3, .L33+44
 1018 007c 1B78     		ldrb	r3, [r3]
 1019 007e DBB2     		uxtb	r3, r3
 1020 0080 43F00803 		orr	r3, r3, #8
 1021 0084 DBB2     		uxtb	r3, r3
 1022 0086 1370     		strb	r3, [r2]
 621:Generated_Source\PSoC5/cyfitter_cfg.c **** 
 622:Generated_Source\PSoC5/cyfitter_cfg.c **** 	/* Set Flash Cycles based on max possible frequency in case a glitch occurs during ClockSetup(). *
 623:Generated_Source\PSoC5/cyfitter_cfg.c **** 	CY_SET_XTND_REG8((void CYFAR *)(CYREG_CACHE_CC_CTL), (((CYDEV_INSTRUCT_CACHE_ENABLED) != 0) ? 0x61
 1023              		.loc 1 623 0
 1024 0088 154B     		ldr	r3, .L33+48
 1025 008a 6022     		movs	r2, #96
ARM GAS  C:\Users\JOSHU_~1\AppData\Local\Temp\ccXCFI4o.s 			page 30


 1026 008c 1A70     		strb	r2, [r3]
 624:Generated_Source\PSoC5/cyfitter_cfg.c **** 	/* Setup clocks based on selections from Clock DWR */
 625:Generated_Source\PSoC5/cyfitter_cfg.c **** 	ClockSetup();
 1027              		.loc 1 625 0
 1028 008e FFF7FEFF 		bl	ClockSetup
 626:Generated_Source\PSoC5/cyfitter_cfg.c **** 	/* Set Flash Cycles based on newly configured 24.00MHz Bus Clock. */
 627:Generated_Source\PSoC5/cyfitter_cfg.c **** 	CY_SET_XTND_REG8((void CYFAR *)(CYREG_CACHE_CC_CTL), (((CYDEV_INSTRUCT_CACHE_ENABLED) != 0) ? 0x81
 1029              		.loc 1 627 0
 1030 0092 134B     		ldr	r3, .L33+48
 1031 0094 8022     		movs	r2, #128
 1032 0096 1A70     		strb	r2, [r3]
 628:Generated_Source\PSoC5/cyfitter_cfg.c **** 	CY_SET_XTND_REG8((void CYFAR *)(CYREG_PANTHER_WAITPIPE), 0x01u);
 1033              		.loc 1 628 0
 1034 0098 124B     		ldr	r3, .L33+52
 1035 009a 0122     		movs	r2, #1
 1036 009c 1A70     		strb	r2, [r3]
 629:Generated_Source\PSoC5/cyfitter_cfg.c **** 
 630:Generated_Source\PSoC5/cyfitter_cfg.c **** 	/* Perform basic analog initialization to defaults */
 631:Generated_Source\PSoC5/cyfitter_cfg.c **** 	AnalogSetDefault();
 1037              		.loc 1 631 0
 1038 009e FFF7FEFF 		bl	AnalogSetDefault
 632:Generated_Source\PSoC5/cyfitter_cfg.c **** 
 633:Generated_Source\PSoC5/cyfitter_cfg.c **** 	/* Configure alternate active mode */
 634:Generated_Source\PSoC5/cyfitter_cfg.c **** 	CYCONFIGCPY((void CYFAR *)CYDEV_PM_STBY_BASE, (const void CYFAR *)CYDEV_PM_ACT_BASE, 14u);
 1039              		.loc 1 634 0
 1040 00a2 0E22     		movs	r2, #14
 1041 00a4 0549     		ldr	r1, .L33+12
 1042 00a6 1048     		ldr	r0, .L33+56
 1043 00a8 FFF7FEFF 		bl	CYCONFIGCPY
 635:Generated_Source\PSoC5/cyfitter_cfg.c **** }
 1044              		.loc 1 635 0
 1045 00ac 00BF     		nop
 1046 00ae 80BD     		pop	{r7, pc}
 1047              	.L34:
 1048              		.align	2
 1049              	.L33:
 1050 00b0 E8460040 		.word	1073759976
 1051 00b4 03500140 		.word	1073827843
 1052 00b8 13500140 		.word	1073827859
 1053 00bc A0430040 		.word	1073759136
 1054 00c0 C2430040 		.word	1073759170
 1055 00c4 D0090048 		.word	1207962064
 1056 00c8 C0510040 		.word	1073762752
 1057 00cc DC090048 		.word	1207962076
 1058 00d0 12510040 		.word	1073762578
 1059 00d4 E4090048 		.word	1207962084
 1060 00d8 20510040 		.word	1073762592
 1061 00dc 22430040 		.word	1073759010
 1062 00e0 00480040 		.word	1073760256
 1063 00e4 04000840 		.word	1074266116
 1064 00e8 B0430040 		.word	1073759152
 1065              		.cfi_endproc
 1066              	.LFE8:
 1067              		.size	cyfitter_cfg, .-cyfitter_cfg
 1068              		.bss
 1069              		.align	3
 1070              	DMA_ZERO_VAL.4981:
ARM GAS  C:\Users\JOSHU_~1\AppData\Local\Temp\ccXCFI4o.s 			page 31


 1071 0000 00000000 		.space	4
 1072              		.section	.rodata
 1073              		.align	2
 1074              		.type	CFG_TD_ADDR0.4983, %object
 1075              		.size	CFG_TD_ADDR0.4983, 168
 1076              	CFG_TD_ADDR0.4983:
 1077 0000 00000000 		.word	CH1_ADDR_DATA0.4976
 1078 0004 08000000 		.word	CH2_ADDR_DATA0.4977
 1079 0008 10000000 		.word	CH5_ADDR_DATA0.4978
 1080 000c 18000000 		.word	CH6_ADDR_DATA0.4979
 1081 0010 20000000 		.word	DMA_TD_START_CMD.4980
 1082 0014 20000000 		.word	DMA_TD_START_CMD.4980
 1083 0018 20000000 		.word	DMA_TD_START_CMD.4980
 1084 001c 20000000 		.word	DMA_TD_START_CMD.4980
 1085 0020 00000000 		.word	DMA_ZERO_VAL.4981
 1086 0024 00000000 		.word	DMA_ZERO_VAL.4981
 1087 0028 00000000 		.word	DMA_ZERO_VAL.4981
 1088 002c 00000000 		.word	DMA_ZERO_VAL.4981
 1089 0030 00000000 		.word	DMA_ZERO_VAL.4981
 1090 0034 00000000 		.word	DMA_ZERO_VAL.4981
 1091 0038 00000000 		.word	DMA_ZERO_VAL.4981
 1092 003c 00000000 		.word	DMA_ZERO_VAL.4981
 1093 0040 00000000 		.word	DMA_ZERO_VAL.4981
 1094 0044 00000000 		.word	DMA_ZERO_VAL.4981
 1095 0048 00000048 		.word	1207959552
 1096 004c 08000048 		.word	1207959560
 1097 0050 10030048 		.word	1207960336
 1098 0054 10000048 		.word	1207959568
 1099 0058 90000048 		.word	1207959696
 1100 005c 10010048 		.word	1207959824
 1101 0060 90010048 		.word	1207959952
 1102 0064 10020048 		.word	1207960080
 1103 0068 90020048 		.word	1207960208
 1104 006c 30030048 		.word	1207960368
 1105 0070 40030048 		.word	1207960384
 1106 0074 50030048 		.word	1207960400
 1107 0078 D0030048 		.word	1207960528
 1108 007c 50040048 		.word	1207960656
 1109 0080 D0040048 		.word	1207960784
 1110 0084 50050048 		.word	1207960912
 1111 0088 D0050048 		.word	1207961040
 1112 008c 50060048 		.word	1207961168
 1113 0090 D0060048 		.word	1207961296
 1114 0094 50070048 		.word	1207961424
 1115 0098 D0070048 		.word	1207961552
 1116 009c 50080048 		.word	1207961680
 1117 00a0 D0080048 		.word	1207961808
 1118 00a4 50090048 		.word	1207961936
 1119              		.text
 1120              	.Letext0:
 1121              		.file 2 "c:\\program files (x86)\\cypress\\psoc creator\\4.2\\psoc creator\\import\\gnu\\arm\\5.4.
 1122              		.file 3 "Generated_Source\\PSoC5\\cytypes.h"