ARM GAS  C:\Users\JOSHU_~1\AppData\Local\Temp\ccuxezzl.s 			page 1


   1              		.syntax unified
   2              		.cpu cortex-m3
   3              		.fpu softvfp
   4              		.eabi_attribute 20, 1
   5              		.eabi_attribute 21, 1
   6              		.eabi_attribute 23, 3
   7              		.eabi_attribute 24, 1
   8              		.eabi_attribute 25, 1
   9              		.eabi_attribute 26, 1
  10              		.eabi_attribute 30, 6
  11              		.eabi_attribute 34, 1
  12              		.eabi_attribute 18, 4
  13              		.thumb
  14              		.syntax unified
  15              		.file	"main.c"
  16              		.text
  17              	.Ltext0:
  18              		.cfi_sections	.debug_frame
  19              		.global	period
  20              		.data
  21              		.align	2
  22              		.type	period, %object
  23              		.size	period, 4
  24              	period:
  25 0000 00001646 		.word	1175846912
  26              		.global	__aeabi_fdiv
  27              		.global	__aeabi_fsub
  28              		.global	__aeabi_fmul
  29              		.global	__aeabi_f2iz
  30              		.section	.text.writeMS,"ax",%progbits
  31              		.align	2
  32              		.global	writeMS
  33              		.thumb
  34              		.thumb_func
  35              		.type	writeMS, %function
  36              	writeMS:
  37              	.LFB63:
  38              		.file 1 "main.c"
   1:main.c        **** /******************************************************************************
   2:main.c        **** * File Name: main.c
   3:main.c        **** *
   4:main.c        **** * Version: 1.10
   5:main.c        **** *
   6:main.c        **** * Description: This is the source code for the Blinking LED code example.
   7:main.c        **** *
   8:main.c        **** * Related Document: CE195352_PSoC_5LP_Blinking_LED.pdf
   9:main.c        **** *
  10:main.c        **** * Hardware Dependency: See CE195352_PSoC_5LP_Blinking_LED.pdf
  11:main.c        **** *
  12:main.c        **** *******************************************************************************
  13:main.c        **** * Copyright (2018), Cypress Semiconductor Corporation. All rights reserved.
  14:main.c        **** *******************************************************************************
  15:main.c        **** * This software, including source code, documentation and related materials
  16:main.c        **** * (“Software”), is owned by Cypress Semiconductor Corporation or one of its
  17:main.c        **** * subsidiaries (“Cypress”) and is protected by and subject to worldwide patent
  18:main.c        **** * protection (United States and foreign), United States copyright laws and
  19:main.c        **** * international treaty provisions. Therefore, you may use this Software only
ARM GAS  C:\Users\JOSHU_~1\AppData\Local\Temp\ccuxezzl.s 			page 2


  20:main.c        **** * as provided in the license agreement accompanying the software package from
  21:main.c        **** * which you obtained this Software (“EULA”).
  22:main.c        **** *
  23:main.c        **** * If no EULA applies, Cypress hereby grants you a personal, nonexclusive,
  24:main.c        **** * non-transferable license to copy, modify, and compile the Software source
  25:main.c        **** * code solely for use in connection with Cypress’s integrated circuit products.
  26:main.c        **** * Any reproduction, modification, translation, compilation, or representation
  27:main.c        **** * of this Software except as specified above is prohibited without the express
  28:main.c        **** * written permission of Cypress.
  29:main.c        **** *
  30:main.c        **** * Disclaimer: THIS SOFTWARE IS PROVIDED AS-IS, WITH NO WARRANTY OF ANY KIND, 
  31:main.c        **** * EXPRESS OR IMPLIED, INCLUDING, BUT NOT LIMITED TO, NONINFRINGEMENT, IMPLIED 
  32:main.c        **** * WARRANTIES OF MERCHANTABILITY AND FITNESS FOR A PARTICULAR PURPOSE. Cypress 
  33:main.c        **** * reserves the right to make changes to the Software without notice. Cypress 
  34:main.c        **** * does not assume any liability arising out of the application or use of the 
  35:main.c        **** * Software or any product or circuit described in the Software. Cypress does 
  36:main.c        **** * not authorize its products for use in any products where a malfunction or 
  37:main.c        **** * failure of the Cypress product may reasonably be expected to result in 
  38:main.c        **** * significant property damage, injury or death (“High Risk Product”). By 
  39:main.c        **** * including Cypress’s product in a High Risk Product, the manufacturer of such 
  40:main.c        **** * system or application assumes all risk of such use and in doing so agrees to 
  41:main.c        **** * indemnify Cypress against all liability.
  42:main.c        **** *******************************************************************************/
  43:main.c        **** 
  44:main.c        **** #include <project.h>
  45:main.c        **** #include <stdlib.h>
  46:main.c        **** 
  47:main.c        **** /*******************************************************************************
  48:main.c        **** * Function Name: main
  49:main.c        **** ********************************************************************************
  50:main.c        **** *
  51:main.c        **** * Summary:
  52:main.c        **** *  The PWM is configured and started in the PWM_1_Start() function.
  53:main.c        **** *  The firmware then enters an idle loop, leaving control of the project
  54:main.c        **** *  to the fixed function PWM peripheral.
  55:main.c        **** *
  56:main.c        **** * Parameters:
  57:main.c        **** *  None.
  58:main.c        **** *
  59:main.c        **** * Return:
  60:main.c        **** *  None.
  61:main.c        **** *
  62:main.c        **** *******************************************************************************/
  63:main.c        **** float period = 9600;
  64:main.c        **** 
  65:main.c        **** void writeMS(float ms) {
  39              		.loc 1 65 0
  40              		.cfi_startproc
  41              		@ args = 0, pretend = 0, frame = 16
  42              		@ frame_needed = 1, uses_anonymous_args = 0
  43 0000 80B5     		push	{r7, lr}
  44              		.cfi_def_cfa_offset 8
  45              		.cfi_offset 7, -8
  46              		.cfi_offset 14, -4
  47 0002 84B0     		sub	sp, sp, #16
  48              		.cfi_def_cfa_offset 24
  49 0004 00AF     		add	r7, sp, #0
ARM GAS  C:\Users\JOSHU_~1\AppData\Local\Temp\ccuxezzl.s 			page 3


  50              		.cfi_def_cfa_register 7
  51 0006 7860     		str	r0, [r7, #4]	@ float
  66:main.c        ****     float perc = ms / 20; // 20 ms period
  52              		.loc 1 66 0
  53 0008 1249     		ldr	r1, .L2
  54 000a 7868     		ldr	r0, [r7, #4]	@ float
  55 000c FFF7FEFF 		bl	__aeabi_fdiv
  56 0010 0346     		mov	r3, r0
  57 0012 FB60     		str	r3, [r7, #12]	@ float
  67:main.c        ****     int cmp = (int) ((1 - perc) * period);
  58              		.loc 1 67 0
  59 0014 F968     		ldr	r1, [r7, #12]	@ float
  60 0016 4FF07E50 		mov	r0, #1065353216
  61 001a FFF7FEFF 		bl	__aeabi_fsub
  62 001e 0346     		mov	r3, r0
  63 0020 1A46     		mov	r2, r3
  64 0022 0D4B     		ldr	r3, .L2+4
  65 0024 1B68     		ldr	r3, [r3]	@ float
  66 0026 1946     		mov	r1, r3
  67 0028 1046     		mov	r0, r2
  68 002a FFF7FEFF 		bl	__aeabi_fmul
  69 002e 0346     		mov	r3, r0
  70 0030 1846     		mov	r0, r3
  71 0032 FFF7FEFF 		bl	__aeabi_f2iz
  72 0036 0346     		mov	r3, r0
  73 0038 BB60     		str	r3, [r7, #8]
  68:main.c        ****     PWM_WriteCompare(cmp);
  74              		.loc 1 68 0
  75 003a BB68     		ldr	r3, [r7, #8]
  76 003c 9BB2     		uxth	r3, r3
  77 003e 1846     		mov	r0, r3
  78 0040 FFF7FEFF 		bl	PWM_WriteCompare
  69:main.c        ****     CyDelay(1000);
  79              		.loc 1 69 0
  80 0044 4FF47A70 		mov	r0, #1000
  81 0048 FFF7FEFF 		bl	CyDelay
  70:main.c        **** }
  82              		.loc 1 70 0
  83 004c 00BF     		nop
  84 004e 1037     		adds	r7, r7, #16
  85              		.cfi_def_cfa_offset 8
  86 0050 BD46     		mov	sp, r7
  87              		.cfi_def_cfa_register 13
  88              		@ sp needed
  89 0052 80BD     		pop	{r7, pc}
  90              	.L3:
  91              		.align	2
  92              	.L2:
  93 0054 0000A041 		.word	1101004800
  94 0058 00000000 		.word	period
  95              		.cfi_endproc
  96              	.LFE63:
  97              		.size	writeMS, .-writeMS
  98              		.section	.text.main,"ax",%progbits
  99              		.align	2
 100              		.global	main
 101              		.thumb
ARM GAS  C:\Users\JOSHU_~1\AppData\Local\Temp\ccuxezzl.s 			page 4


 102              		.thumb_func
 103              		.type	main, %function
 104              	main:
 105              	.LFB64:
  71:main.c        **** 
  72:main.c        **** 
  73:main.c        **** int main()
  74:main.c        **** {
 106              		.loc 1 74 0
 107              		.cfi_startproc
 108              		@ args = 0, pretend = 0, frame = 536
 109              		@ frame_needed = 1, uses_anonymous_args = 0
 110 0000 80B5     		push	{r7, lr}
 111              		.cfi_def_cfa_offset 8
 112              		.cfi_offset 7, -8
 113              		.cfi_offset 14, -4
 114 0002 ADF5067D 		sub	sp, sp, #536
 115              		.cfi_def_cfa_offset 544
 116 0006 00AF     		add	r7, sp, #0
 117              		.cfi_def_cfa_register 7
  75:main.c        ****     CyDelay(1000);
 118              		.loc 1 75 0
 119 0008 4FF47A70 		mov	r0, #1000
 120 000c FFF7FEFF 		bl	CyDelay
  76:main.c        ****     /* Serial */
  77:main.c        ****     CyGlobalIntEnable;
 121              		.loc 1 77 0
 122              		.syntax unified
 123              	@ 77 "main.c" 1
 124 0010 62B6     		CPSIE   i
 125              	@ 0 "" 2
  78:main.c        ****     UART_Start();
 126              		.loc 1 78 0
 127              		.thumb
 128              		.syntax unified
 129 0012 FFF7FEFF 		bl	UART_Start
  79:main.c        ****     int ch; 
  80:main.c        ****     char buffer[512];
  81:main.c        ****     uint16_t buffer_count = 0;
 130              		.loc 1 81 0
 131 0016 0023     		movs	r3, #0
 132 0018 A7F80A32 		strh	r3, [r7, #522]	@ movhi
  82:main.c        ****     
  83:main.c        ****     /* PWM */
  84:main.c        ****     PWM_Start();    
 133              		.loc 1 84 0
 134 001c FFF7FEFF 		bl	PWM_Start
  85:main.c        ****     int cmp = 8640;
 135              		.loc 1 85 0
 136 0020 4FF40753 		mov	r3, #8640
 137 0024 C7F81432 		str	r3, [r7, #532]
  86:main.c        ****     int mltplr = 1;
 138              		.loc 1 86 0
 139 0028 0123     		movs	r3, #1
 140 002a C7F81032 		str	r3, [r7, #528]
 141              	.L9:
  87:main.c        ****     while (1) {
ARM GAS  C:\Users\JOSHU_~1\AppData\Local\Temp\ccuxezzl.s 			page 5


  88:main.c        ****         ch = UART_GetChar(); // returns an int apparently
 142              		.loc 1 88 0
 143 002e FFF7FEFF 		bl	UART_GetChar
 144 0032 0346     		mov	r3, r0
 145 0034 C7F80432 		str	r3, [r7, #516]
 146              	.LBB2:
  89:main.c        ****         
  90:main.c        ****         if (ch > 0 && 1==2) 
  91:main.c        ****         { 
  92:main.c        ****             if (ch == 13) { // if new line pressed
  93:main.c        ****                 // Null terminate
  94:main.c        ****                 buffer[buffer_count++] = '\0';
  95:main.c        **** 
  96:main.c        ****                 // Print back what was typed
  97:main.c        ****                 UART_PutString(buffer);
  98:main.c        ****                 UART_PutStringConst("\n");
  99:main.c        **** 
 100:main.c        ****                 // Parse int from buffer
 101:main.c        ****                 cmp = atoi(buffer);
 102:main.c        **** 
 103:main.c        ****                    
 104:main.c        ****                 
 105:main.c        ****                 // Spin motor:
 106:main.c        ****                 for (int i = 0; i < 2; i++) {
 107:main.c        ****                     PWM_WriteCompare(cmp); 
 108:main.c        ****                     CyDelay(100);    
 109:main.c        ****                 }
 110:main.c        **** 
 111:main.c        ****                 // Reset buffer
 112:main.c        ****                 buffer_count = 0;
 113:main.c        ****             }
 114:main.c        ****             else if (ch >= 48 && ch <= 57 && buffer_count < sizeof(buffer) / sizeof(buffer[0]) - 1)
 115:main.c        ****                 // Put character into buffer
 116:main.c        ****                 buffer[buffer_count++] = ch;
 117:main.c        ****             }
 118:main.c        ****         }
 119:main.c        ****         
 120:main.c        ****         
 121:main.c        ****         for (int i = 0; i < 2; i++) {
 147              		.loc 1 121 0
 148 0038 0023     		movs	r3, #0
 149 003a C7F80C32 		str	r3, [r7, #524]
 150 003e 0DE0     		b	.L5
 151              	.L6:
 122:main.c        ****             PWM_WriteCompare(cmp); 
 152              		.loc 1 122 0
 153 0040 D7F81432 		ldr	r3, [r7, #532]
 154 0044 9BB2     		uxth	r3, r3
 155 0046 1846     		mov	r0, r3
 156 0048 FFF7FEFF 		bl	PWM_WriteCompare
 123:main.c        ****             CyDelay(100);    
 157              		.loc 1 123 0
 158 004c 6420     		movs	r0, #100
 159 004e FFF7FEFF 		bl	CyDelay
 121:main.c        ****             PWM_WriteCompare(cmp); 
 160              		.loc 1 121 0
 161 0052 D7F80C32 		ldr	r3, [r7, #524]
ARM GAS  C:\Users\JOSHU_~1\AppData\Local\Temp\ccuxezzl.s 			page 6


 162 0056 0133     		adds	r3, r3, #1
 163 0058 C7F80C32 		str	r3, [r7, #524]
 164              	.L5:
 121:main.c        ****             PWM_WriteCompare(cmp); 
 165              		.loc 1 121 0 is_stmt 0 discriminator 1
 166 005c D7F80C32 		ldr	r3, [r7, #524]
 167 0060 012B     		cmp	r3, #1
 168 0062 EDDD     		ble	.L6
 169              	.LBE2:
 124:main.c        ****             if (cmp == 9000 && 1==2) {
 125:main.c        ****                 i = 0;
 126:main.c        ****             }
 127:main.c        ****         }
 128:main.c        ****         
 129:main.c        ****         cmp += 1 * mltplr;
 170              		.loc 1 129 0 is_stmt 1
 171 0064 D7F81422 		ldr	r2, [r7, #532]
 172 0068 D7F81032 		ldr	r3, [r7, #528]
 173 006c 1344     		add	r3, r3, r2
 174 006e C7F81432 		str	r3, [r7, #532]
 130:main.c        ****         if (cmp >= 9120 || cmp <= 8640) {
 175              		.loc 1 130 0
 176 0072 D7F81432 		ldr	r3, [r7, #532]
 177 0076 42F29F32 		movw	r2, #9119
 178 007a 9342     		cmp	r3, r2
 179 007c 04DC     		bgt	.L7
 180              		.loc 1 130 0 is_stmt 0 discriminator 1
 181 007e D7F81432 		ldr	r3, [r7, #532]
 182 0082 B3F5075F 		cmp	r3, #8640
 183 0086 D2DC     		bgt	.L9
 184              	.L7:
 131:main.c        ****             mltplr *= -1;
 185              		.loc 1 131 0 is_stmt 1
 186 0088 D7F81032 		ldr	r3, [r7, #528]
 187 008c 5B42     		negs	r3, r3
 188 008e C7F81032 		str	r3, [r7, #528]
 132:main.c        ****         }
 133:main.c        ****         /*
 134:main.c        ****         if (cmp == 8800 ) {
 135:main.c        ****             PWM_WriteCompare(cmp); 
 136:main.c        ****             CyDelay(500);
 137:main.c        ****             while (1) {}   
 138:main.c        ****         }
 139:main.c        ****         
 140:main.c        ****        */
 141:main.c        ****     }
 189              		.loc 1 141 0
 190 0092 CCE7     		b	.L9
 191              		.cfi_endproc
 192              	.LFE64:
 193              		.size	main, .-main
 194              		.text
 195              	.Letext0:
 196              		.file 2 "c:\\program files (x86)\\cypress\\psoc creator\\4.2\\psoc creator\\import\\gnu\\arm\\5.4.
 197              		.file 3 "c:\\program files (x86)\\cypress\\psoc creator\\4.2\\psoc creator\\import\\gnu\\arm\\5.4.
 198              		.file 4 "Generated_Source\\PSoC5/core_cm3.h"